Archive member included because of file (symbol)

c:/NXP/bstudio_nxp/sdk/JN-SW-4168/Components/Library\libOS_JN516x.a(os.o)
                              c:/NXP/bstudio_nxp/workspace/Custom_ZLL_Lights_someone42/MultiLight/Build/os_gen.o (symbol from plugin) (os_vStart)
c:/NXP/bstudio_nxp/sdk/JN-SW-4168/Components/Library\libOS_JN516x.a(os_contirq_JN516x.o)
                              c:/NXP/bstudio_nxp/workspace/Custom_ZLL_Lights_someone42/MultiLight/Build/os_irq.o (os_UnclaimedException_W)
c:/NXP/bstudio_nxp/sdk/JN-SW-4168/Components/Library\libPWRM_JN516x.a(pwrm.o)
                              c:/NXP/bstudio_nxp/workspace/Custom_ZLL_Lights_someone42/MultiLight/Build/app_start_light.o (symbol from plugin) (PWRM_vInit)
c:/NXP/bstudio_nxp/sdk/JN-SW-4168/Components/Library\libPWRM_JN516x.a(pwrm_setjmp_JN516x.o)
                              pwrm.o (symbol from plugin) (setjmp)
c:/NXP/bstudio_nxp/sdk/JN-SW-4168/Components/Library\libPWRM_JN516x.a(pwrm_cold_start.o)
                              (AppColdStart)
c:/NXP/bstudio_nxp/sdk/JN-SW-4168/Components/Library\libPWRM_JN516x.a(pwrm_warm_start.o)
                              (AppWarmStart)
c:/NXP/bstudio_nxp/sdk/JN-SW-4168/Components/Library\libPDUM_JN516x.a(pdum_nwk.o)
                              c:/NXP/bstudio_nxp/workspace/Custom_ZLL_Lights_someone42/MultiLight/Build/pdum_gen.o (symbol from plugin) (pdum_vNPduInit)
c:/NXP/bstudio_nxp/sdk/JN-SW-4168/Components/Library\libPDUM_JN516x.a(pdum_apl.o)
                              c:/NXP/bstudio_nxp/workspace/Custom_ZLL_Lights_someone42/MultiLight/Build/zll_CommissionCmdHandler.o (symbol from plugin) (PDUM_u16APduInstanceReadNBO)
c:/NXP/bstudio_nxp/sdk/JN-SW-4168/Components/Library\libPDUM_JN516x.a(pdum.o)
                              pdum_nwk.o (symbol from plugin) (PDUM_u16SizeNBO)
c:/NXP/bstudio_nxp/sdk/JN-SW-4168/Components/Library\libZPSAPL_JN516x.a(zps_apl_af.o)
                              c:/NXP/bstudio_nxp/workspace/Custom_ZLL_Lights_someone42/MultiLight/Build/zpr_light_node.o (symbol from plugin) (ZPS_eAplAfInit)
c:/NXP/bstudio_nxp/sdk/JN-SW-4168/Components/Library\libZPSAPL_JN516x.a(zps_apl_af_apsde.o)
                              c:/NXP/bstudio_nxp/workspace/Custom_ZLL_Lights_someone42/MultiLight/Build/zps_gen.o (symbol from plugin) (zps_vHandleApsdeDataFragIndNotSupported)
c:/NXP/bstudio_nxp/sdk/JN-SW-4168/Components/Library\libZPSAPL_JN516x.a(zps_apl_task.o)
                              zps_apl_af_apsde.o (symbol from plugin) (zps_vAplAfPostEvent)
c:/NXP/bstudio_nxp/sdk/JN-SW-4168/Components/Library\libZPSAPL_JN516x.a(zps_apl_apsde.o)
                              zps_apl_task.o (symbol from plugin) (ZPS_vAplRegisterApsdeDcfmIndCallbacks)
c:/NXP/bstudio_nxp/sdk/JN-SW-4168/Components/Library\libZPSAPL_JN516x.a(zps_apl_apsme.o)
                              zps_apl_task.o (symbol from plugin) (ZPS_vAplRegisterApsmeDcfmIndCallbacks)
c:/NXP/bstudio_nxp/sdk/JN-SW-4168/Components/Library\libZPSAPL_JN516x.a(zps_apl_aps_nlde.o)
                              zps_apl_task.o (symbol from plugin) (zps_vAplApsHandleNldeDcfmInd)
c:/NXP/bstudio_nxp/sdk/JN-SW-4168/Components/Library\libZPSAPL_JN516x.a(zps_apl_sec.o)
                              zps_apl_task.o (symbol from plugin) (zps_psFindKeyDescr)
c:/NXP/bstudio_nxp/sdk/JN-SW-4168/Components/Library\libZPSAPL_JN516x.a(zps_apl_aib.o)
                              c:/NXP/bstudio_nxp/workspace/Custom_ZLL_Lights_someone42/MultiLight/Build/Groups.o (symbol from plugin) (zps_psAplAibGetAib)
c:/NXP/bstudio_nxp/sdk/JN-SW-4168/Components/Library\libZPSAPL_JN516x.a(zps_apl_zdo_nwkmanager.o)
                              zps_apl_apsme.o (symbol from plugin) (zps_vAplSaveRecord)
c:/NXP/bstudio_nxp/sdk/JN-SW-4168/Components/Library\libZPSAPL_JN516x.a(zps_apl_zdo_handle_zdp_event.o)
                              zps_apl_task.o (symbol from plugin) (zps_bAplZdoHandleZdpEvent)
c:/NXP/bstudio_nxp/sdk/JN-SW-4168/Components/Library\libZPSAPL_JN516x.a(zps_apl_zdo_trust_center.o)
                              zps_apl_sec.o (symbol from plugin) (zps_eAplTrustCenterFindDevice)
c:/NXP/bstudio_nxp/sdk/JN-SW-4168/Components/Library\libZPSAPL_JN516x.a(zps_apl_zdo_common.o)
                              zps_apl_zdo_nwkmanager.o (symbol from plugin) (zps_eAplZdoNlmeleaveWrapper)
c:/NXP/bstudio_nxp/sdk/JN-SW-4168/Components/Library\libZPSAPL_JN516x.a(zps_apl_zdo_group.o)
                              c:/NXP/bstudio_nxp/workspace/Custom_ZLL_Lights_someone42/MultiLight/Build/GroupsTableManager.o (symbol from plugin) (zps_eAplZdoGroupEndpointAdd)
c:/NXP/bstudio_nxp/sdk/JN-SW-4168/Components/Library\libZPSAPL_JN516x.a(zps_apl_zdo_default_server.o)
                              c:/NXP/bstudio_nxp/workspace/Custom_ZLL_Lights_someone42/MultiLight/Build/zps_gen.o (symbol from plugin) (zps_vAplZdoDefaultServerInit)
c:/NXP/bstudio_nxp/sdk/JN-SW-4168/Components/Library\libZPSAPL_JN516x.a(zps_apl_mac_isr.o)
                              zps_apl_task.o (symbol from plugin) (u32DataQueueCount)
c:/NXP/bstudio_nxp/sdk/JN-SW-4168/Components/Library\libZPSAPL_JN516x.a(zps_apl_zdo_nwk_addr_server.o)
                              c:/NXP/bstudio_nxp/workspace/Custom_ZLL_Lights_someone42/MultiLight/Build/zps_gen.o (symbol from plugin) (zps_vAplZdoNwkAddrServerInit)
c:/NXP/bstudio_nxp/sdk/JN-SW-4168/Components/Library\libZPSAPL_JN516x.a(zps_apl_zdo_ieee_addr_server.o)
                              c:/NXP/bstudio_nxp/workspace/Custom_ZLL_Lights_someone42/MultiLight/Build/zps_gen.o (symbol from plugin) (zps_vAplZdoIeeeAddrServerInit)
c:/NXP/bstudio_nxp/sdk/JN-SW-4168/Components/Library\libZPSAPL_JN516x.a(zps_apl_zdo_match_desc_server.o)
                              c:/NXP/bstudio_nxp/workspace/Custom_ZLL_Lights_someone42/MultiLight/Build/zps_gen.o (symbol from plugin) (zps_vAplZdoMatchDescServerInit)
c:/NXP/bstudio_nxp/sdk/JN-SW-4168/Components/Library\libZPSAPL_JN516x.a(zps_apl_zdo_node_desc_server.o)
                              c:/NXP/bstudio_nxp/workspace/Custom_ZLL_Lights_someone42/MultiLight/Build/zps_gen.o (symbol from plugin) (zps_vAplZdoNodeDescServerInit)
c:/NXP/bstudio_nxp/sdk/JN-SW-4168/Components/Library\libZPSAPL_JN516x.a(zps_apl_zdo_simple_desc_server.o)
                              c:/NXP/bstudio_nxp/workspace/Custom_ZLL_Lights_someone42/MultiLight/Build/zps_gen.o (symbol from plugin) (zps_vAplZdoSimpleDescServerInit)
c:/NXP/bstudio_nxp/sdk/JN-SW-4168/Components/Library\libZPSAPL_JN516x.a(zps_apl_zdo_power_desc_server.o)
                              c:/NXP/bstudio_nxp/workspace/Custom_ZLL_Lights_someone42/MultiLight/Build/zps_gen.o (symbol from plugin) (zps_vAplZdoPowerDescServerInit)
c:/NXP/bstudio_nxp/sdk/JN-SW-4168/Components/Library\libZPSAPL_JN516x.a(zps_apl_zdo_active_ep_server.o)
                              c:/NXP/bstudio_nxp/workspace/Custom_ZLL_Lights_someone42/MultiLight/Build/zps_gen.o (symbol from plugin) (zps_vAplZdoActiveEpServerInit)
c:/NXP/bstudio_nxp/sdk/JN-SW-4168/Components/Library\libZPSAPL_JN516x.a(zps_apl_zdo_device_annce_server.o)
                              c:/NXP/bstudio_nxp/workspace/Custom_ZLL_Lights_someone42/MultiLight/Build/zps_gen.o (symbol from plugin) (zps_vAplZdoDeviceAnnceServerInit)
c:/NXP/bstudio_nxp/sdk/JN-SW-4168/Components/Library\libZPSAPL_JN516x.a(zps_apl_zdo_permit_joining_server.o)
                              c:/NXP/bstudio_nxp/workspace/Custom_ZLL_Lights_someone42/MultiLight/Build/zps_gen.o (symbol from plugin) (zps_vAplZdoPermitJoiningServerInit)
c:/NXP/bstudio_nxp/sdk/JN-SW-4168/Components/Library\libZPSAPL_JN516x.a(zps_apl_zdo_system_server_discovery_server.o)
                              c:/NXP/bstudio_nxp/workspace/Custom_ZLL_Lights_someone42/MultiLight/Build/zps_gen.o (symbol from plugin) (zps_vAplZdoSystemServerDiscoveryServerInit)
c:/NXP/bstudio_nxp/sdk/JN-SW-4168/Components/Library\libZPSAPL_JN516x.a(zps_apl_zdo_mgmt_lqi_server.o)
                              c:/NXP/bstudio_nxp/workspace/Custom_ZLL_Lights_someone42/MultiLight/Build/zps_gen.o (symbol from plugin) (zps_vAplZdoMgmtLqiServerInit)
c:/NXP/bstudio_nxp/sdk/JN-SW-4168/Components/Library\libZPSAPL_JN516x.a(zps_apl_zdo_mgmt_rtg_server.o)
                              c:/NXP/bstudio_nxp/workspace/Custom_ZLL_Lights_someone42/MultiLight/Build/zps_gen.o (symbol from plugin) (zps_vAplZdoMgmtRtgServerInit)
c:/NXP/bstudio_nxp/sdk/JN-SW-4168/Components/Library\libZPSAPL_JN516x.a(zps_apl_zdo_mgmt_leave_server.o)
                              c:/NXP/bstudio_nxp/workspace/Custom_ZLL_Lights_someone42/MultiLight/Build/zps_gen.o (symbol from plugin) (zps_vAplZdoMgmtLeaveServerInit)
c:/NXP/bstudio_nxp/sdk/JN-SW-4168/Components/Library\libZPSAPL_JN516x.a(zps_apl_zdo_mgmt_nwk_update_server.o)
                              c:/NXP/bstudio_nxp/workspace/Custom_ZLL_Lights_someone42/MultiLight/Build/zps_gen.o (symbol from plugin) (zps_vAplZdoMgmtNWKUpdateServerInit)
c:/NXP/bstudio_nxp/sdk/JN-SW-4168/Components/Library\libZPSAPL_JN516x.a(zps_apl_zdo_bound_data_request_manager.o)
                              zps_apl_af.o (symbol from plugin) (zps_eAplZdoBdrmRequestSend)
c:/NXP/bstudio_nxp/sdk/JN-SW-4168/Components/Library\libZPSAPL_JN516x.a(zps_apl_zdo_nwkmanager_client.o)
                              c:/NXP/bstudio_nxp/workspace/Custom_ZLL_Lights_someone42/MultiLight/Build/zps_gen.o (symbol from plugin) (zps_vAplZdoZdoClientInit)
c:/NXP/bstudio_nxp/sdk/JN-SW-4168/Components/Library\libZPSAPL_JN516x.a(zps_apl_zdp_apsde_req.o)
                              zps_apl_zdo_nwkmanager_client.o (symbol from plugin) (zps_eAplZdpApsdeReqInternal)
c:/NXP/bstudio_nxp/sdk/JN-SW-4168/Components/Library\libZPSAPL_JN516x.a(zps_apl_zdp_device_annce.o)
                              c:/NXP/bstudio_nxp/workspace/Custom_ZLL_Lights_someone42/MultiLight/Build/zpr_light_node.o (symbol from plugin) (zps_eAplZdpDeviceAnnceRequest)
c:/NXP/bstudio_nxp/sdk/JN-SW-4168/Components/Library\libZPSAPL_JN516x.a(zps_apl_zdp_nwk_addr_rsp.o)
                              zps_apl_zdo_nwk_addr_server.o (symbol from plugin) (zps_eZdpNwkAddrResponse)
c:/NXP/bstudio_nxp/sdk/JN-SW-4168/Components/Library\libZPSAPL_JN516x.a(zps_apl_zdp_ieee_addr_rsp.o)
                              zps_apl_zdo_ieee_addr_server.o (symbol from plugin) (zps_eZdpIeeeAddrResponse)
c:/NXP/bstudio_nxp/sdk/JN-SW-4168/Components/Library\libZPSAPL_JN516x.a(zps_apl_zdp_node_desc_rsp.o)
                              zps_apl_zdo_node_desc_server.o (symbol from plugin) (zps_eZdpNodeDescResponse)
c:/NXP/bstudio_nxp/sdk/JN-SW-4168/Components/Library\libZPSAPL_JN516x.a(zps_apl_zdp_power_desc_rsp.o)
                              zps_apl_zdo_power_desc_server.o (symbol from plugin) (zps_eZdpPowerDescResponse)
c:/NXP/bstudio_nxp/sdk/JN-SW-4168/Components/Library\libZPSAPL_JN516x.a(zps_apl_zdp_simple_desc_rsp.o)
                              zps_apl_zdo_simple_desc_server.o (symbol from plugin) (zps_eZdpSimpleDescResponse)
c:/NXP/bstudio_nxp/sdk/JN-SW-4168/Components/Library\libZPSAPL_JN516x.a(zps_apl_zdp_active_ep_rsp.o)
                              zps_apl_zdo_active_ep_server.o (symbol from plugin) (zps_eZdpActiveEpResponse)
c:/NXP/bstudio_nxp/sdk/JN-SW-4168/Components/Library\libZPSAPL_JN516x.a(zps_apl_zdp_match_desc_rsp.o)
                              zps_apl_zdo_match_desc_server.o (symbol from plugin) (zps_eZdpMatchDescResponse)
c:/NXP/bstudio_nxp/sdk/JN-SW-4168/Components/Library\libZPSAPL_JN516x.a(zps_apl_zdp_system_server_discovery_rsp.o)
                              zps_apl_zdo_system_server_discovery_server.o (symbol from plugin) (zps_eZdpSystemServerDiscoveryResponse)
c:/NXP/bstudio_nxp/sdk/JN-SW-4168/Components/Library\libZPSAPL_JN516x.a(zps_apl_zdp_mgmt_lqi_rsp.o)
                              zps_apl_zdo_mgmt_lqi_server.o (symbol from plugin) (zps_eAplZdpMgmtLqiResponse)
c:/NXP/bstudio_nxp/sdk/JN-SW-4168/Components/Library\libZPSAPL_JN516x.a(zps_apl_zdp_mgmt_rtg_rsp.o)
                              zps_apl_zdo_mgmt_rtg_server.o (symbol from plugin) (zps_eAplZdpMgmtRtgResponse)
c:/NXP/bstudio_nxp/sdk/JN-SW-4168/Components/Library\libZPSAPL_JN516x.a(zps_apl_zdp_mgmt_leave_rsp.o)
                              zps_apl_zdo_mgmt_leave_server.o (symbol from plugin) (zps_eZdpMgmtLeaveResponse)
c:/NXP/bstudio_nxp/sdk/JN-SW-4168/Components/Library\libZPSAPL_JN516x.a(zps_apl_zdp_mgmt_nwk_update_notify_rsp.o)
                              zps_apl_zdo_mgmt_nwk_update_server.o (symbol from plugin) (zps_eZdpMgmtNwkUpdateNotifyResponse)
c:/NXP/bstudio_nxp/sdk/JN-SW-4168/Components/Library\libZPSAPL_JN516x.a(zps_apl_zdp_mgmt_permit_joining_rsp.o)
                              zps_apl_zdo_permit_joining_server.o (symbol from plugin) (zps_eZdpMgmtPermitJoiningResponse)
c:/NXP/bstudio_nxp/sdk/JN-SW-4168/Components/Library\libZPSAPL_JN516x.a(zps_apl_zdo_bind_unbind_server.o)
                              zps_apl_zdo_nwkmanager_client.o (symbol from plugin) (bAplZdoBindUnbindServerProcessApdu)
c:/NXP/bstudio_nxp/sdk/JN-SW-4168/Components/Library\libZPSAPL_JN516x.a(zps_apl_zdp_bind_rsp.o)
                              zps_apl_zdo_bind_unbind_server.o (symbol from plugin) (zps_eAplZdpBindResponse)
c:/NXP/bstudio_nxp/sdk/JN-SW-4168/Components/Library\libZPSAPL_JN516x.a(zps_apl_zdp_unbind_rsp.o)
                              zps_apl_zdo_bind_unbind_server.o (symbol from plugin) (zps_eZdpUnbindResponse)
c:/NXP/bstudio_nxp/sdk/JN-SW-4168/Components/Library\libRandom_JN516x.a(rnd_main.o)
                              zps_apl_af.o (symbol from plugin) (RND_vInit)
c:/NXP/bstudio_nxp/sdk/JN-SW-4168/Components/Library\libPDM_EEPROM_JN516x.a(PDM_Create.o)
                              c:/NXP/bstudio_nxp/workspace/Custom_ZLL_Lights_someone42/MultiLight/Build/app_start_light.o (symbol from plugin) (PDM_eInitialise)
c:/NXP/bstudio_nxp/sdk/JN-SW-4168/Components/Library\libPDM_EEPROM_JN516x.a(PDM_EEPROMsegmentStatus.o)
                              PDM_Create.o (symbol from plugin) (bPDM_DoesEEPROMsegmentContainFileSystemHeader)
c:/NXP/bstudio_nxp/sdk/JN-SW-4168/Components/Library\libPDM_EEPROM_JN516x.a(PDM_FileSystem.o)
                              c:/NXP/bstudio_nxp/workspace/Custom_ZLL_Lights_someone42/MultiLight/Build/app_start_light.o (symbol from plugin) (u8PDM_CalculateFileSystemCapacity)
c:/NXP/bstudio_nxp/sdk/JN-SW-4168/Components/Library\libPDM_EEPROM_JN516x.a(PDM_FileSystemData.o)
                              c:/NXP/bstudio_nxp/workspace/Custom_ZLL_Lights_someone42/MultiLight/Build/app_scenes.o (symbol from plugin) (PDM_eReadDataFromRecord)
c:/NXP/bstudio_nxp/sdk/JN-SW-4168/Components/Library\libPDM_EEPROM_JN516x.a(PDM_FileSystemGenerate.o)
                              PDM_Create.o (symbol from plugin) (vPDM_GenerateCleanFileSystem)
c:/NXP/bstudio_nxp/sdk/JN-SW-4168/Components/Library\libPDM_EEPROM_JN516x.a(PDM_FileSystemHeaderAccessFunctions.o)
                              PDM_FileSystemData.o (symbol from plugin) (ePDM_ReadFileSystemHeaderCopyIndex)
c:/NXP/bstudio_nxp/sdk/JN-SW-4168/Components/Library\libPDM_EEPROM_JN516x.a(PDM_FileSystemHeaderRepair.o)
                              PDM_FileSystemGenerate.o (symbol from plugin) (iPDM_RepairFileSystemRecord)
c:/NXP/bstudio_nxp/sdk/JN-SW-4168/Components/Library\libPDM_EEPROM_JN516x.a(PDM_FileSystemHeaderVerify.o)
                              PDM_FileSystemHeaderRepair.o (symbol from plugin) (iPDM_ReCalculateWearCountAndChecksumAndWriteFileSystemHeader)
c:/NXP/bstudio_nxp/sdk/JN-SW-4168/Components/Library\libPDM_EEPROM_JN516x.a(PDM_FileSystemMove.o)
                              PDM_FileSystemGenerate.o (symbol from plugin) (vPDM_MoveAllDataFromListToList)
c:/NXP/bstudio_nxp/sdk/JN-SW-4168/Components/Library\libPDM_EEPROM_JN516x.a(PDM_FileSystemVerify.o)
                              PDM_FileSystemGenerate.o (symbol from plugin) (iPDM_VerifyDataSequenceWithBufferId)
c:/NXP/bstudio_nxp/sdk/JN-SW-4168/Components/Library\libPDM_EEPROM_JN516x.a(PDM_ImageBitmapReconstruct.o)
                              PDM_FileSystemGenerate.o (symbol from plugin) (iPDM_ReconstructValidImageBitmap)
c:/NXP/bstudio_nxp/sdk/JN-SW-4168/Components/Library\libPDM_EEPROM_JN516x.a(PDM_SearchAndListOrder.o)
                              PDM_FileSystemGenerate.o (symbol from plugin) (vPDM_AddFileSystemElementToListInAscendingWearCountOrder)
c:/NXP/bstudio_nxp/sdk/JN-SW-4168/Components/Library\libPDM_EEPROM_JN516x.a(PDM_Segment.o)
                              PDM_FileSystemData.o (symbol from plugin) (iPDM_WriteSegmentHeaderAndData)
c:/NXP/bstudio_nxp/sdk/JN-SW-4168/Components/Library\libPDM_EEPROM_JN516x.a(PDM_SegmentData.o)
                              PDM_FileSystemVerify.o (symbol from plugin) (iPDM_ReadUserDataFromFileSystemRecord)
c:/NXP/bstudio_nxp/sdk/JN-SW-4168/Components/Library\libPDM_EEPROM_JN516x.a(PDM_SegmentReplace.o)
                              PDM_FileSystemGenerate.o (symbol from plugin) (iPDM_ReconstructReplacedDataTable)
c:/NXP/bstudio_nxp/sdk/JN-SW-4168/Components/Library\libPDM_EEPROM_JN516x.a(PDM_SegmentSequenceExtendDelete.o)
                              PDM_FileSystemData.o (symbol from plugin) (bPDM_IsSequenceAppended)
c:/NXP/bstudio_nxp/sdk/JN-SW-4168/Components/Library\libPDM_EEPROM_JN516x.a(PDM_SegmentSequenceExtendReconstruct.o)
                              PDM_FileSystemGenerate.o (symbol from plugin) (iPDM_ReconstructExtendedSegmentSequence)
c:/NXP/bstudio_nxp/sdk/JN-SW-4168/Components/Library\libPDM_EEPROM_JN516x.a(PDM_SegmentSequenceSave.o)
                              c:/NXP/bstudio_nxp/workspace/Custom_ZLL_Lights_someone42/MultiLight/Build/app_scenes.o (symbol from plugin) (PDM_eSaveRecordData)
c:/NXP/bstudio_nxp/sdk/JN-SW-4168/Components/Library\libPDM_EEPROM_JN516x.a(PDM_slist.o)
                              PDM_Create.o (symbol from plugin) (vSLISTinitialise)
c:/NXP/bstudio_nxp/sdk/JN-SW-4168/Components/Library\libPDM_EEPROM_JN516x.a(PDM_WearLevelling.o)
                              PDM_FileSystem.o (symbol from plugin) (iPDM_GetWearLevelledBuffer)
c:/NXP/bstudio_nxp/sdk/JN-SW-4168/Components/Library\libPDM_EEPROM_JN516x.a(PDM_Bitmap.o)
                              PDM_FileSystemGenerate.o (symbol from plugin) (vPDM_ReconstructValidBitmap)
c:/NXP/bstudio_nxp/sdk/JN-SW-4168/Components/Library\libPDM_EEPROM_JN516x.a(PDM_EEPROMheaderAccessFunctions.o)
                              PDM_FileSystemMove.o (symbol from plugin) (vPDM_SetEEPROMandFileSystemValidState)
c:/NXP/bstudio_nxp/sdk/JN-SW-4168/Components/Library\libPDM_EEPROM_JN516x.a(PDM_EEPROMheaderReadAndWrite.o)
                              PDM_EEPROMsegmentStatus.o (symbol from plugin) (iPDM_ReadSegmentHeaderDataFromEEPROMsegment)
c:/NXP/bstudio_nxp/sdk/JN-SW-4168/Components/Library\libPDM_EEPROM_JN516x.a(PDM_EEPROMReadAndWrite.o)
                              PDM_FileSystemGenerate.o (symbol from plugin) (iPDM_ReadUserDataFromEEPROMsegment)
c:/NXP/bstudio_nxp/sdk/JN-SW-4168/Components/Library\libPDM_EEPROM_JN516x.a(PDM_FileSystemDelete.o)
                              PDM_Bitmap.o (symbol from plugin) (vPDM_DeleteSegmentsWithIdFromFileSystem)
c:/NXP/bstudio_nxp/sdk/JN-SW-4168/Components/Library\libPDM_EEPROM_JN516x.a(PDM_FileSystemHeaderChecksum.o)
                              PDM_FileSystemHeaderVerify.o (symbol from plugin) (u16PDM_CalculateRecordChecksum)
c:/NXP/bstudio_nxp/sdk/JN-SW-4168/Components/Library\libPDM_EEPROM_JN516x.a(PDM_SegmentSequenceExtendFilter.o)
                              PDM_SegmentSequenceExtendReconstruct.o (symbol from plugin) (vPDM_FilterDuplicateAppendedSegmentsFromList)
c:/NXP/bstudio_nxp/sdk/JN-SW-4168/Components/Library\libPDM_EEPROM_JN516x.a(PDM_EEPROM.o)
                              PDM_EEPROMheaderReadAndWrite.o (symbol from plugin) (bPDM_InitialiseEEPROM)
c:/NXP/bstudio_nxp/sdk/JN-SW-4168/Components/Library\libDBG_JN516x.a(dbg.o)
                              c:/NXP/bstudio_nxp/workspace/Custom_ZLL_Lights_someone42/MultiLight/Build/app_start_light.o (symbol from plugin) (DBG_vReset)
c:/NXP/bstudio_nxp/sdk/JN-SW-4168/Components/Library\libDBG_JN516x.a(dbg_uart.o)
                              c:/NXP/bstudio_nxp/workspace/Custom_ZLL_Lights_someone42/MultiLight/Build/app_start_light.o (symbol from plugin) (DBG_vUartInit)
c:/NXP/bstudio_nxp/sdk/JN-SW-4168/Components/Library\libDBG_JN516x.a(dbg_exceptions.o)
                              c:/NXP/bstudio_nxp/workspace/Custom_ZLL_Lights_someone42/MultiLight/Build/app_start_light.o (symbol from plugin) (DBG_vDumpStack)
c:/NXP/bstudio_nxp/sdk/JN-SW-4168/Components/Library\libZPSZLL_JN516x.a(zps_apl_zll.o)
                              c:/NXP/bstudio_nxp/workspace/Custom_ZLL_Lights_someone42/MultiLight/Build/zps_gen.o (symbol from plugin) (zps_vAfInterPanInit)
c:/NXP/bstudio_nxp/sdk/JN-SW-4168/Components/Library\libZPSZLL_JN516x.a(zps_apl_options.o)
                              zps_apl_zll.o (symbol from plugin) (ZPS_vRegisterInterPanHandlers)
c:/NXP/bstudio_nxp/sdk/JN-SW-4168/Components/Library\libZPSNWK_JN516x.a(zps_nwk_dcim.o)
                              zps_apl_task.o (symbol from plugin) (ZPS_vNwkRegisterNlmeDcfmIndCallbacks)
c:/NXP/bstudio_nxp/sdk/JN-SW-4168/Components/Library\libZPSNWK_JN516x.a(zps_nwk_lib.o)
                              c:/NXP/bstudio_nxp/workspace/Custom_ZLL_Lights_someone42/MultiLight/Build/appZpsBeaconHandler.o (symbol from plugin) (zps_u64NwkLibFromPayload)
c:/NXP/bstudio_nxp/sdk/JN-SW-4168/Components/Library\libZPSNWK_JN516x.a(zps_nwk_lkst.o)
                              zps_apl_mac_isr.o (symbol from plugin) (zps_u8CalcLinkCost)
c:/NXP/bstudio_nxp/sdk/JN-SW-4168/Components/Library\libZPSNWK_JN516x.a(zps_nwk_main.o)
                              zps_apl_zdo_nwkmanager.o (symbol from plugin) (ZPS_pvNwkCtor)
c:/NXP/bstudio_nxp/sdk/JN-SW-4168/Components/Library\libZPSNWK_JN516x.a(zps_nwk_maint.o)
                              zps_apl_sec.o (symbol from plugin) (zps_bNwkFindAddIeeeAddr)
c:/NXP/bstudio_nxp/sdk/JN-SW-4168/Components/Library\libZPSNWK_JN516x.a(zps_nwk_mcps.o)
                              zps_nwk_main.o (symbol from plugin) (zps_vNwkMcpsMgrInit)
c:/NXP/bstudio_nxp/sdk/JN-SW-4168/Components/Library\libZPSNWK_JN516x.a(zps_nwk_mlme.o)
                              zps_apl_task.o (symbol from plugin) (ZPS_vNwkHandleMlmeDcfmInd)
c:/NXP/bstudio_nxp/sdk/JN-SW-4168/Components/Library\libZPSNWK_JN516x.a(zps_nwk_nib.o)
                              c:/NXP/bstudio_nxp/workspace/Custom_ZLL_Lights_someone42/MultiLight/Build/zpr_light_node.o (symbol from plugin) (ZPS_psNwkNibGetHandle)
c:/NXP/bstudio_nxp/sdk/JN-SW-4168/Components/Library\libZPSNWK_JN516x.a(zps_nwk_nlde.o)
                              zps_apl_af_apsde.o (symbol from plugin) (ZPS_vNwkHandleNldeReqRsp)
c:/NXP/bstudio_nxp/sdk/JN-SW-4168/Components/Library\libZPSNWK_JN516x.a(zps_nwk_nlme.o)
                              zps_apl_apsde.o (symbol from plugin) (ZPS_vNwkHandleNlmeReqRsp)
c:/NXP/bstudio_nxp/sdk/JN-SW-4168/Components/Library\libZPSNWK_JN516x.a(zps_nwk_pmjn.o)
                              zps_nwk_main.o (symbol from plugin) (zps_vNwkPermitJoiningInit)
c:/NXP/bstudio_nxp/sdk/JN-SW-4168/Components/Library\libZPSNWK_JN516x.a(zps_nwk_rt.o)
                              zps_nwk_nib.o (symbol from plugin) (zps_vExpireOldRoutes)
c:/NXP/bstudio_nxp/sdk/JN-SW-4168/Components/Library\libZPSNWK_JN516x.a(zps_nwk_sec.o)
                              zps_apl_sec.o (symbol from plugin) (ZPS_bSecEncrypt)
c:/NXP/bstudio_nxp/sdk/JN-SW-4168/Components/Library\libZPSNWK_JN516x.a(zps_nwk_slist.o)
                              zps_nwk_mcps.o (symbol from plugin) (zps_vNwkSlistInit)
c:/NXP/bstudio_nxp/sdk/JN-SW-4168/Components/Library\libZPSNWK_JN516x.a(zps_nwk_actv_st.o)
                              zps_nwk_main.o (symbol from plugin) (zps_eNwkActvStInit)
c:/NXP/bstudio_nxp/sdk/JN-SW-4168/Components/Library\libZPSNWK_JN516x.a(zps_nwk_btt.o)
                              zps_nwk_main.o (symbol from plugin) (zps_vNwkBttMgrInit)
c:/NXP/bstudio_nxp/sdk/JN-SW-4168/Components/Library\libZPSNWK_JN516x.a(zps_nwk_disc.o)
                              zps_nwk_actv_st.o (symbol from plugin) (zps_vNwkHandleCmeNwkDiscReq)
c:/NXP/bstudio_nxp/sdk/JN-SW-4168/Components/Library\libZPSNWK_JN516x.a(zps_nwk_disc_st.o)
                              zps_nwk_main.o (symbol from plugin) (zps_eNwkDiscStInit)
c:/NXP/bstudio_nxp/sdk/JN-SW-4168/Components/Library\libZPSNWK_JN516x.a(zps_nwk_form_st.o)
                              zps_nwk_main.o (symbol from plugin) (zps_eNwkFormStInit)
c:/NXP/bstudio_nxp/sdk/JN-SW-4168/Components/Library\libZPSNWK_JN516x.a(zps_nwk_frm.o)
                              zps_nwk_mcps.o (symbol from plugin) (zps_eDefaultDataDcfm)
c:/NXP/bstudio_nxp/sdk/JN-SW-4168/Components/Library\libZPSNWK_JN516x.a(zps_nwk_idle_st.o)
                              zps_nwk_nlme.o (symbol from plugin) (zps_vNwkIdleStHandleCme)
c:/NXP/bstudio_nxp/sdk/JN-SW-4168/Components/Library\libZPSNWK_JN516x.a(zps_nwk_join.o)
                              zps_nwk_actv_st.o (symbol from plugin) (zps_vNwkHandleCmeDirectJoinReq)
c:/NXP/bstudio_nxp/sdk/JN-SW-4168/Components/Library\libZPSNWK_JN516x.a(zps_nwk_join_st.o)
                              zps_nwk_join.o (symbol from plugin) (zps_vNwkJoinStStartResponseTimer)
c:/NXP/bstudio_nxp/sdk/JN-SW-4168/Components/Library\libZPSNWK_JN516x.a(zps_nwk_leave.o)
                              zps_nwk_actv_st.o (symbol from plugin) (zps_eNwkHandleSceLeave)
c:/NXP/bstudio_nxp/sdk/JN-SW-4168/Components/Library\libZPSNWK_JN516x.a(zps_nwk_mac.o)
                              zps_nwk_maint.o (symbol from plugin) (MAC_u64GetExtAddr)
c:/NXP/bstudio_nxp/sdk/JN-SW-4168/Components/Library\libZPSNWK_JN516x.a(zps_nwk_scan.o)
                              zps_nwk_disc.o (symbol from plugin) (zps_sNwkLibSubmitScan)
c:/NXP/bstudio_nxp/sdk/JN-SW-4168/Components/Library\libZPSNWK_JN516x.a(zps_nwk_sync.o)
                              zps_nwk_actv_st.o (symbol from plugin) (zps_vNwkHandleCmeSyncReq)
c:/NXP/bstudio_nxp/sdk/JN-SW-4168/Components/Library\libZPSNWK_JN516x.a(zps_nwk_form.o)
                              zps_nwk_idle_st.o (symbol from plugin) (zps_vNwkHandleCmeIdleNwkFormReq)
c:/NXP/bstudio_nxp/sdk/JN-SW-4168/Components/Library\libMiniMac_JN5169.a(Mini_Main.o)
                              zps_apl_zdo_nwkmanager.o (symbol from plugin) (sMiniMacPib)
c:/NXP/bstudio_nxp/sdk/JN-SW-4168/Components/Library\libMiniMac_JN5169.a(Mini_Mcps.o)
                              Mini_Main.o (symbol from plugin) (psGetTxFrameBuffer)
c:/NXP/bstudio_nxp/sdk/JN-SW-4168/Components/Library\libMiniMac_JN5169.a(Mini_TimerServer.o)
                              Mini_Main.o (symbol from plugin) (vTimerFired)
c:/NXP/bstudio_nxp/sdk/JN-SW-4168/Components/Library\libMiniMac_JN5169.a(Mini_TxRx.o)
                              Mini_Mcps.o (symbol from plugin) (vAddToTxQueue)
c:/NXP/bstudio_nxp/sdk/JN-SW-4168/Components/Library\libMiniMac_JN5169.a(Endian.o)
                              Mini_Main.o (symbol from plugin) (vFromU16ToLe)
c:/NXP/bstudio_nxp/sdk/JN-SW-4168/Components/Library\libMiniMac_JN5169.a(Mini_Association.o)
                              Mini_TxRx.o (symbol from plugin) (vAssociatingRxCallback)
c:/NXP/bstudio_nxp/sdk/JN-SW-4168/Components/Library\libMiniMac_JN5169.a(Mini_Running.o)
                              Mini_TxRx.o (symbol from plugin) (bRadioDoze)
c:/NXP/bstudio_nxp/sdk/JN-SW-4168/Components/Library\libMiniMac_JN5169.a(Mini_Scan.o)
                              Mini_Running.o (symbol from plugin) (vScanOrphanReceived)
c:/NXP/bstudio_nxp/sdk/JN-SW-4168/Components/Library\libMiniMac_JN5169.a(Mini_Poll.o)
                              Mini_Running.o (symbol from plugin) (vMiniMacPoll_CheckPollResponse)
c:/NXP/bstudio_nxp/sdk/JN-SW-4168/Components/Library\libMiniMacShim_JN516x.a(Mini_Shim.o)
                              c:/NXP/bstudio_nxp/workspace/Custom_ZLL_Lights_someone42/MultiLight/Build/app_light_commission_task.o (symbol from plugin) (eAppApiDefPlmeSet)
c:/NXP/bstudio_nxp/sdk/JN-SW-4168/Components/Library\libMMAC_JN5169.a(MMAC.o)
                              Mini_Main.o (symbol from plugin) (vMMAC_Enable)
c:/NXP/bstudio_nxp/sdk/JN-SW-4168/Components/Library\libMMAC_JN5169.a(MMAC_RadioInit_JN5169.o)
                              Mini_Main.o (symbol from plugin) (vMMAC_ConfigureRadio)
c:/NXP/bstudio_nxp/sdk/JN-SW-4168/Components/Library\libJPT_JN5169.a(JPT_RadioTxPowerTests.o)
                              MMAC.o (symbol from plugin) (vJPT_TxPowerAdjust)
c:/NXP/bstudio_nxp/sdk/JN-SW-4168/Components/Library\libJPT_JN5169.a(JPT_RadioSettings_JN5169.o)
                              MMAC_RadioInit_JN5169.o (symbol from plugin) (bJPT_InitRadio_JN5169)
c:/NXP/bstudio_nxp/sdk/JN-SW-4168/Components/Library\libAes_JN516x.a(AEScoprocessorAPI.o)
                              zps_nwk_sec.o (symbol from plugin) (bACI_WriteKey)
c:/NXP/bstudio_nxp/sdk/JN-SW-4168/Components/Library\libAes_JN516x.a(AEScoprocessorECB.o)
                              c:/NXP/bstudio_nxp/workspace/Custom_ZLL_Lights_someone42/MultiLight/Build/app_light_commission_task.o (symbol from plugin) (bACI_ECBencodeStripe)
c:/NXP/bstudio_nxp/sdk/JN-SW-4168/Components/Library\libAes_JN516x.a(AES_CCM_Star.o)
                              zps_nwk_sec.o (symbol from plugin) (vACI_OptimisedCcmStar)
c:/NXP/bstudio_nxp/sdk/JN-SW-4168/Components/Library\libHardwareApi_JN5169.a(AHI_Analogue.o)
                              c:/NXP/bstudio_nxp/workspace/Custom_ZLL_Lights_someone42/MultiLight/Build/app_temp_sensor.o (symbol from plugin) (bAHI_APRegulatorEnabled)
c:/NXP/bstudio_nxp/sdk/JN-SW-4168/Components/Library\libHardwareApi_JN5169.a(AHI_Dio.o)
                              c:/NXP/bstudio_nxp/workspace/Custom_ZLL_Lights_someone42/MultiLight/Build/DriverBulb_TimerPWM.o (symbol from plugin) (vAHI_DioSetDirection)
c:/NXP/bstudio_nxp/sdk/JN-SW-4168/Components/Library\libHardwareApi_JN5169.a(AHI_Reset.o)
                              c:/NXP/bstudio_nxp/workspace/Custom_ZLL_Lights_someone42/MultiLight/Build/app_start_light.o (symbol from plugin) (vAHI_SwReset)
c:/NXP/bstudio_nxp/sdk/JN-SW-4168/Components/Library\libHardwareApi_JN5169.a(AHI_System.o)
                              pwrm_cold_start.o (symbol from plugin) (u8AHI_PowerStatus)
c:/NXP/bstudio_nxp/sdk/JN-SW-4168/Components/Library\libHardwareApi_JN5169.a(AHI_Timer.o)
                              c:/NXP/bstudio_nxp/workspace/Custom_ZLL_Lights_someone42/MultiLight/Build/DriverBulb_TimerPWM.o (symbol from plugin) (vAHI_TimerEnable)
c:/NXP/bstudio_nxp/sdk/JN-SW-4168/Components/Library\libHardwareApi_JN5169.a(AHI_TimerInt.o)
                              AHI_System.o (symbol from plugin) (vAHI_Timer0RegisterCallback)
c:/NXP/bstudio_nxp/sdk/JN-SW-4168/Components/Library\libHardwareApi_JN5169.a(AHI_Uart.o)
                              c:/NXP/bstudio_nxp/workspace/Custom_ZLL_Lights_someone42/MultiLight/Build/app_light_calibration.o (symbol from plugin) (vAHI_UartSetClockDivisor)
c:/NXP/bstudio_nxp/sdk/JN-SW-4168/Components/Library\libHardwareApi_JN5169.a(AHI_WakeTimer.o)
                              pwrm.o (symbol from plugin) (vAHI_WakeTimerEnable)
c:/NXP/bstudio_nxp/sdk/JN-SW-4168/Components/Library\libHardwareApi_JN5169.a(AHI_Flash.o)
                              AHI_System.o (symbol from plugin) (vAHI_FlashAndEEPROMControllerIntHandler)
c:/NXP/bstudio_nxp/sdk/JN-SW-4168/Components/Library\libHardwareApi_JN5169.a(AHI_Infrared.o)
                              AHI_TimerInt.o (symbol from plugin) (vAHI_IntHandlerInfrared)
c:/NXP/bstudio_nxp/sdk/JN-SW-4168/Components/Library\libHardwareApi_JN5169.a(InternalFlashApi.o)
                              AHI_Flash.o (symbol from plugin) (bFlashErase)
c:/NXP/bstudio_nxp/sdk/JN-SW-4168/Components/Library\libHardwareApi_JN5169.a(EEP_EEPROM.o)
                              PDM_Create.o (symbol from plugin) (u16AHI_InitialiseEEP)
c:/NXP/bstudio_nxp/sdk/JN-SW-4168/Components/Library\libHardwareApi_JN5169.a(AHI_TickTimer.o)
                              c:/NXP/bstudio_nxp/workspace/Custom_ZLL_Lights_someone42/MultiLight/Build/app_timer_driver.o (symbol from plugin) (vAHI_TickTimerIntPendClr)
c:/NXP/bstudio_nxp/sdk/JN-SW-4168/Components/Library\libHardwareApi_JN5169.a(AHI_Interrupt.o)
                              MMAC.o (symbol from plugin) (vAHI_InterruptSetPriority)
c:/NXP/bstudio_nxp/sdk/JN-SW-4168/Components/Library\libHardwareApi_JN5169.a(AHI_Spi.o)
                              AHI_Flash.o (symbol from plugin) (vAHI_SpiConfigure)
c:/NXP/bstudio_nxp/sdk/JN-SW-4168/Components/Library\libMicroSpecific_JN516x.a(MicroInt_ba.o)
                              Mini_Main.o (symbol from plugin) (vMicroIntEnableOnly)
c:/NXP/bstudio_nxp/sdk/JN-SW-4168/Components/Library\libMicroSpecific_JN516x.a(MicroSyscall_ba.o)
                              AHI_Reset.o (symbol from plugin) (vMicroSyscall)
c:/NXP/bstudio_nxp/sdk/JN-SW-4168/Components/Library\libBoot_JN516x.a(Heap.o)
                              (u32HeapStart)
c:/NXP/bstudio_nxp/sdk/JN-SW-4168/Components/Library\libBoot_JN516x.a(ExceptionHandler.o)
                              MMAC.o (symbol from plugin) (isr_handlers)
c:/NXP/bstudio_nxp/sdk/JN-SW-4168/Components/Library\libZPSMAC_Mini_JN516x.a(zps_miniMac.o)
                              zps_apl_mac_isr.o (symbol from plugin) (ZPS_vMiniMacShimInit)
c:/NXP/bstudio_nxp/sdk/JN-SW-4168/Components/Library\libZPSTSV_JN516x.a(zps_tsv.o)
                              zps_apl_zdo_nwkmanager.o (symbol from plugin) (ZPS_vTsvInit)
c:/NXP/bstudio_nxp/sdk/JN-SW-4168/Components/Library\libAES_SW_JN516x.a(aes_sw_hmac_mmo.o)
                              zps_apl_sec.o (symbol from plugin) (AESSW_vHMAC_MMO)
c:/NXP/bstudio_nxp/sdk/JN-SW-4168/Components/Library\libAES_SW_JN516x.a(aes_sw_mmo.o)
                              aes_sw_hmac_mmo.o (symbol from plugin) (AESSW_vMMOBlockUpdate)
c:/NXP/bstudio_nxp/sdk/JN-SW-4168/Components/Library\libZPSAPL_JN516x.a(zps_apl_inl.o)
                              zps_nwk_join.o (symbol from plugin) (ZPS_pvAplZdoGetAplHandle)
c:/NXP/bstudio_nxp/sdk/JN-SW-4168/Components/Library\libZPSAPL_JN516x.a(zps_apl_zdo_bind_manager.o)
                              zps_apl_inl.o (symbol from plugin) (zps_eAplZdoBind)
c:/NXP/bstudio_nxp/sdk/JN-SW-4168/Components/Library\libZPSAPL_JN516x.a(zps_apl_zdp_active_ep_req.o)
                              zps_apl_inl.o (symbol from plugin) (zps_eAplZdpActiveEpRequest)
c:/NXP/bstudio_nxp/sdk/JN-SW-4168/Components/Library\libZPSAPL_JN516x.a(zps_apl_zdp_active_ep_store_req.o)
                              zps_apl_inl.o (symbol from plugin) (zps_eAplZdpActiveEpStoreRequest)
c:/NXP/bstudio_nxp/sdk/JN-SW-4168/Components/Library\libZPSAPL_JN516x.a(zps_apl_zdp_backup_source_bind_req.o)
                              zps_apl_inl.o (symbol from plugin) (zps_eAplZdpBackupSourceBindRequest)
c:/NXP/bstudio_nxp/sdk/JN-SW-4168/Components/Library\libZPSAPL_JN516x.a(zps_apl_zdp_bind_register_req.o)
                              zps_apl_inl.o (symbol from plugin) (zps_eAplZdpBindRegisterRequest)
c:/NXP/bstudio_nxp/sdk/JN-SW-4168/Components/Library\libZPSAPL_JN516x.a(zps_apl_zdp_bind_unbind_req.o)
                              zps_apl_inl.o (symbol from plugin) (zps_eAplZdpBindUnbindRequest)
c:/NXP/bstudio_nxp/sdk/JN-SW-4168/Components/Library\libZPSAPL_JN516x.a(zps_apl_zdp_bkup_bind_table_req.o)
                              zps_apl_inl.o (symbol from plugin) (zps_eAplZdpBackupBindTableRequest)
c:/NXP/bstudio_nxp/sdk/JN-SW-4168/Components/Library\libZPSAPL_JN516x.a(zps_apl_zdp_complex_desc_req.o)
                              zps_apl_inl.o (symbol from plugin) (zps_eAplZdpComplexDescRequest)
c:/NXP/bstudio_nxp/sdk/JN-SW-4168/Components/Library\libZPSAPL_JN516x.a(zps_apl_zdp_discovery_cache_req.o)
                              zps_apl_inl.o (symbol from plugin) (zps_eAplZdpDiscoveryCacheRequest)
c:/NXP/bstudio_nxp/sdk/JN-SW-4168/Components/Library\libZPSAPL_JN516x.a(zps_apl_zdp_discovery_store_req.o)
                              zps_apl_inl.o (symbol from plugin) (zps_eAplZdpDiscoveryStoreRequest)
c:/NXP/bstudio_nxp/sdk/JN-SW-4168/Components/Library\libZPSAPL_JN516x.a(zps_apl_zdp_end_device_bind_req.o)
                              zps_apl_inl.o (symbol from plugin) (zps_eAplZdpEndDeviceBindRequest)
c:/NXP/bstudio_nxp/sdk/JN-SW-4168/Components/Library\libZPSAPL_JN516x.a(zps_apl_zdp_extended_active_ep_req.o)
                              zps_apl_inl.o (symbol from plugin) (zps_eAplZdpExtendedActiveEpRequest)
c:/NXP/bstudio_nxp/sdk/JN-SW-4168/Components/Library\libZPSAPL_JN516x.a(zps_apl_zdp_extended_simple_desc_req.o)
                              zps_apl_inl.o (symbol from plugin) (zps_eAplZdpExtendedSimpleDescRequest)
c:/NXP/bstudio_nxp/sdk/JN-SW-4168/Components/Library\libZPSAPL_JN516x.a(zps_apl_zdp_find_node_cache_req.o)
                              zps_apl_inl.o (symbol from plugin) (zps_eAplZdpFindNodeCacheRequest)
c:/NXP/bstudio_nxp/sdk/JN-SW-4168/Components/Library\libZPSAPL_JN516x.a(zps_apl_zdp_ieee_addr_req.o)
                              zps_apl_inl.o (symbol from plugin) (zps_eAplZdpIeeeAddrRequest)
c:/NXP/bstudio_nxp/sdk/JN-SW-4168/Components/Library\libZPSAPL_JN516x.a(zps_apl_zdp_match_desc_req.o)
                              zps_apl_inl.o (symbol from plugin) (zps_eAplZdpMatchDescRequest)
c:/NXP/bstudio_nxp/sdk/JN-SW-4168/Components/Library\libZPSAPL_JN516x.a(zps_apl_zdp_mgmt_bind_req.o)
                              zps_apl_inl.o (symbol from plugin) (zps_eAplZdpMgmtBindRequest)
c:/NXP/bstudio_nxp/sdk/JN-SW-4168/Components/Library\libZPSAPL_JN516x.a(zps_apl_zdp_mgmt_cache_req.o)
                              zps_apl_inl.o (symbol from plugin) (zps_eAplZdpMgmtCacheRequest)
c:/NXP/bstudio_nxp/sdk/JN-SW-4168/Components/Library\libZPSAPL_JN516x.a(zps_apl_zdp_mgmt_direct_join_req.o)
                              zps_apl_inl.o (symbol from plugin) (zps_eAplZdpMgmtDirectJoinRequest)
c:/NXP/bstudio_nxp/sdk/JN-SW-4168/Components/Library\libZPSAPL_JN516x.a(zps_apl_zdp_mgmt_leave_req.o)
                              zps_apl_inl.o (symbol from plugin) (zps_eAplZdpMgmtLeaveRequest)
c:/NXP/bstudio_nxp/sdk/JN-SW-4168/Components/Library\libZPSAPL_JN516x.a(zps_apl_zdp_mgmt_lqi_req.o)
                              zps_apl_inl.o (symbol from plugin) (zps_eAplZdpMgmtLqiRequest)
c:/NXP/bstudio_nxp/sdk/JN-SW-4168/Components/Library\libZPSAPL_JN516x.a(zps_apl_zdp_mgmt_nwk_disc_req.o)
                              zps_apl_inl.o (symbol from plugin) (zps_eAplZdpMgmtNwkDiscRequest)
c:/NXP/bstudio_nxp/sdk/JN-SW-4168/Components/Library\libZPSAPL_JN516x.a(zps_apl_zdp_mgmt_nwk_update_req.o)
                              zps_apl_inl.o (symbol from plugin) (zps_eAplZdpMgmtNwkUpdateRequest)
c:/NXP/bstudio_nxp/sdk/JN-SW-4168/Components/Library\libZPSAPL_JN516x.a(zps_apl_zdp_mgmt_permit_joining_req.o)
                              zps_apl_inl.o (symbol from plugin) (zps_eAplZdpMgmtPermitJoiningRequest)
c:/NXP/bstudio_nxp/sdk/JN-SW-4168/Components/Library\libZPSAPL_JN516x.a(zps_apl_zdp_mgmt_rtg_req.o)
                              zps_apl_inl.o (symbol from plugin) (zps_eAplZdpMgmtRtgRequest)
c:/NXP/bstudio_nxp/sdk/JN-SW-4168/Components/Library\libZPSAPL_JN516x.a(zps_apl_zdp_node_desc_req.o)
                              zps_apl_inl.o (symbol from plugin) (zps_eAplZdpNodeDescRequest)
c:/NXP/bstudio_nxp/sdk/JN-SW-4168/Components/Library\libZPSAPL_JN516x.a(zps_apl_zdp_nwk_addr_req.o)
                              zps_apl_inl.o (symbol from plugin) (zps_eAplZdpNwkAddrRequest)
c:/NXP/bstudio_nxp/sdk/JN-SW-4168/Components/Library\libZPSAPL_JN516x.a(zps_apl_zdp_power_desc_req.o)
                              zps_apl_inl.o (symbol from plugin) (zps_eAplZdpPowerDescRequest)
c:/NXP/bstudio_nxp/sdk/JN-SW-4168/Components/Library\libZPSAPL_JN516x.a(zps_apl_zdp_power_desc_store_req.o)
                              zps_apl_inl.o (symbol from plugin) (zps_eAplZdpPowerDescStoreRequest)
c:/NXP/bstudio_nxp/sdk/JN-SW-4168/Components/Library\libZPSAPL_JN516x.a(zps_apl_zdp_recover_bind_table_req.o)
                              zps_apl_inl.o (symbol from plugin) (zps_eAplZdpRecoverBindTableRequest)
c:/NXP/bstudio_nxp/sdk/JN-SW-4168/Components/Library\libZPSAPL_JN516x.a(zps_apl_zdp_recover_source_bind_req.o)
                              zps_apl_inl.o (symbol from plugin) (zps_eAplZdpRecoverSourceBindRequest)
c:/NXP/bstudio_nxp/sdk/JN-SW-4168/Components/Library\libZPSAPL_JN516x.a(zps_apl_zdp_remove_bkup_bind_entry_req.o)
                              zps_apl_inl.o (symbol from plugin) (zps_eAplZdpRemoveBkupBindEntryRequest)
c:/NXP/bstudio_nxp/sdk/JN-SW-4168/Components/Library\libZPSAPL_JN516x.a(zps_apl_zdp_remove_node_cache_req.o)
                              zps_apl_inl.o (symbol from plugin) (zps_eAplZdpRemoveNodeCacheRequest)
c:/NXP/bstudio_nxp/sdk/JN-SW-4168/Components/Library\libZPSAPL_JN516x.a(zps_apl_zdp_replace_device_req.o)
                              zps_apl_inl.o (symbol from plugin) (zps_eAplZdpReplaceDeviceRequest)
c:/NXP/bstudio_nxp/sdk/JN-SW-4168/Components/Library\libZPSAPL_JN516x.a(zps_apl_zdp_simple_desc_req.o)
                              zps_apl_inl.o (symbol from plugin) (zps_eAplZdpSimpleDescRequest)
c:/NXP/bstudio_nxp/sdk/JN-SW-4168/Components/Library\libZPSAPL_JN516x.a(zps_apl_zdp_simple_desc_store_req.o)
                              zps_apl_inl.o (symbol from plugin) (zps_eAplZdpSimpleDescStoreRequest)
c:/NXP/bstudio_nxp/sdk/JN-SW-4168/Components/Library\libZPSAPL_JN516x.a(zps_apl_zdp_system_server_discovery_req.o)
                              zps_apl_inl.o (symbol from plugin) (zps_eAplZdpSystemServerDiscoveryRequest)
c:/NXP/bstudio_nxp/sdk/JN-SW-4168/Components/Library\libZPSAPL_JN516x.a(zps_apl_zdp_store_bkup_bind_entry_req.o)
                              zps_apl_inl.o (symbol from plugin) (zps_eAplZdpStoreBkupBindEntryRequest)
c:/NXP/bstudio_nxp/sdk/JN-SW-4168/Components/Library\libZPSAPL_JN516x.a(zps_apl_zdp_node_desc_store_req.o)
                              zps_apl_inl.o (symbol from plugin) (zps_eAplZdpNodeDescStoreRequest)
c:/NXP/bstudio_nxp/sdk/JN-SW-4168/Components/Library\libZPSAPL_JN516x.a(zps_apl_zdp_user_desc_req.o)
                              zps_apl_inl.o (symbol from plugin) (zps_eAplZdpUserDescRequest)
c:/NXP/bstudio_nxp/sdk/JN-SW-4168/Components/Library\libZPSAPL_JN516x.a(zps_apl_zdp_user_desc_set.o)
                              zps_apl_inl.o (symbol from plugin) (zps_eAplZdpUserDescSetRequest)
c:/nxp/bstudio_nxp/sdk/tools/ba-elf-ba2-r36379/bin/../lib/gcc/ba-elf/4.7.4/../../../../ba-elf/lib/mcpu_jn51xx_sizeopt\libc.a(lib_a-memcmp.o)
                              C:\DOCUME~1\g\LOCALS~1\Temp\ccflNc42.ltrans1.ltrans.o (memcmp)
c:/nxp/bstudio_nxp/sdk/tools/ba-elf-ba2-r36379/bin/../lib/gcc/ba-elf/4.7.4/../../../../ba-elf/lib/mcpu_jn51xx_sizeopt\libc.a(lib_a-memcpy.o)
                              C:\DOCUME~1\g\LOCALS~1\Temp\ccflNc42.ltrans0.ltrans.o (memcpy)
c:/nxp/bstudio_nxp/sdk/tools/ba-elf-ba2-r36379/bin/../lib/gcc/ba-elf/4.7.4/../../../../ba-elf/lib/mcpu_jn51xx_sizeopt\libc.a(lib_a-memset.o)
                              C:\DOCUME~1\g\LOCALS~1\Temp\ccflNc42.ltrans0.ltrans.o (memset)
c:/nxp/bstudio_nxp/sdk/tools/ba-elf-ba2-r36379/bin/../lib/gcc/ba-elf/4.7.4/../../../../ba-elf/lib/mcpu_jn51xx_sizeopt\libc.a(lib_a-strlen.o)
                              C:\DOCUME~1\g\LOCALS~1\Temp\ccflNc42.ltrans2.ltrans.o (strlen)
c:/nxp/bstudio_nxp/sdk/tools/ba-elf-ba2-r36379/bin/../lib/gcc/ba-elf/4.7.4/../../../../ba-elf/lib/mcpu_jn51xx_sizeopt\libc.a(lib_a-strncpy.o)
                              C:\DOCUME~1\g\LOCALS~1\Temp\ccflNc42.ltrans4.ltrans.o (strncpy)
c:/nxp/bstudio_nxp/sdk/tools/ba-elf-ba2-r36379/bin/../lib/gcc/ba-elf/4.7.4/mcpu_jn51xx_sizeopt\libgcc.a(__udivsi3.o)
                              C:\DOCUME~1\g\LOCALS~1\Temp\ccflNc42.ltrans2.ltrans.o (__udivsi3)
c:/nxp/bstudio_nxp/sdk/tools/ba-elf-ba2-r36379/bin/../lib/gcc/ba-elf/4.7.4/mcpu_jn51xx_sizeopt\libgcc.a(__divsi3.o)
                              C:\DOCUME~1\g\LOCALS~1\Temp\ccflNc42.ltrans10.ltrans.o (__divsi3)
c:/nxp/bstudio_nxp/sdk/tools/ba-elf-ba2-r36379/bin/../lib/gcc/ba-elf/4.7.4/mcpu_jn51xx_sizeopt\libgcc.a(__umodsi3.o)
                              C:\DOCUME~1\g\LOCALS~1\Temp\ccflNc42.ltrans2.ltrans.o (__umodsi3)
c:/nxp/bstudio_nxp/sdk/tools/ba-elf-ba2-r36379/bin/../lib/gcc/ba-elf/4.7.4/mcpu_jn51xx_sizeopt\libgcc.a(__modsi3.o)
                              C:\DOCUME~1\g\LOCALS~1\Temp\ccflNc42.ltrans7.ltrans.o (__modsi3)
c:/nxp/bstudio_nxp/sdk/tools/ba-elf-ba2-r36379/bin/../lib/gcc/ba-elf/4.7.4/mcpu_jn51xx_sizeopt\libgcc.a(_fixunsdfsi.o)
                              C:\DOCUME~1\g\LOCALS~1\Temp\ccflNc42.ltrans1.ltrans.o (__fixunsdfsi)
c:/nxp/bstudio_nxp/sdk/tools/ba-elf-ba2-r36379/bin/../lib/gcc/ba-elf/4.7.4/mcpu_jn51xx_sizeopt\libgcc.a(_divdi3.o)
                              C:\DOCUME~1\g\LOCALS~1\Temp\ccflNc42.ltrans4.ltrans.o (__divdi3)
c:/nxp/bstudio_nxp/sdk/tools/ba-elf-ba2-r36379/bin/../lib/gcc/ba-elf/4.7.4/mcpu_jn51xx_sizeopt\libgcc.a(_udivdi3.o)
                              C:\DOCUME~1\g\LOCALS~1\Temp\ccflNc42.ltrans4.ltrans.o (__udivdi3)
c:/nxp/bstudio_nxp/sdk/tools/ba-elf-ba2-r36379/bin/../lib/gcc/ba-elf/4.7.4/mcpu_jn51xx_sizeopt\libgcc.a(addsf3.o)
                              C:\DOCUME~1\g\LOCALS~1\Temp\ccflNc42.ltrans1.ltrans.o (__addsf3)
c:/nxp/bstudio_nxp/sdk/tools/ba-elf-ba2-r36379/bin/../lib/gcc/ba-elf/4.7.4/mcpu_jn51xx_sizeopt\libgcc.a(divsf3.o)
                              C:\DOCUME~1\g\LOCALS~1\Temp\ccflNc42.ltrans1.ltrans.o (__divsf3)
c:/nxp/bstudio_nxp/sdk/tools/ba-elf-ba2-r36379/bin/../lib/gcc/ba-elf/4.7.4/mcpu_jn51xx_sizeopt\libgcc.a(eqsf2.o)
                              C:\DOCUME~1\g\LOCALS~1\Temp\ccflNc42.ltrans1.ltrans.o (__eqsf2)
c:/nxp/bstudio_nxp/sdk/tools/ba-elf-ba2-r36379/bin/../lib/gcc/ba-elf/4.7.4/mcpu_jn51xx_sizeopt\libgcc.a(gesf2.o)
                              C:\DOCUME~1\g\LOCALS~1\Temp\ccflNc42.ltrans1.ltrans.o (__gesf2)
c:/nxp/bstudio_nxp/sdk/tools/ba-elf-ba2-r36379/bin/../lib/gcc/ba-elf/4.7.4/mcpu_jn51xx_sizeopt\libgcc.a(lesf2.o)
                              C:\DOCUME~1\g\LOCALS~1\Temp\ccflNc42.ltrans1.ltrans.o (__lesf2)
c:/nxp/bstudio_nxp/sdk/tools/ba-elf-ba2-r36379/bin/../lib/gcc/ba-elf/4.7.4/mcpu_jn51xx_sizeopt\libgcc.a(mulsf3.o)
                              C:\DOCUME~1\g\LOCALS~1\Temp\ccflNc42.ltrans1.ltrans.o (__mulsf3)
c:/nxp/bstudio_nxp/sdk/tools/ba-elf-ba2-r36379/bin/../lib/gcc/ba-elf/4.7.4/mcpu_jn51xx_sizeopt\libgcc.a(subsf3.o)
                              C:\DOCUME~1\g\LOCALS~1\Temp\ccflNc42.ltrans1.ltrans.o (__subsf3)
c:/nxp/bstudio_nxp/sdk/tools/ba-elf-ba2-r36379/bin/../lib/gcc/ba-elf/4.7.4/mcpu_jn51xx_sizeopt\libgcc.a(fixsfsi.o)
                              C:\DOCUME~1\g\LOCALS~1\Temp\ccflNc42.ltrans4.ltrans.o (__fixsfsi)
c:/nxp/bstudio_nxp/sdk/tools/ba-elf-ba2-r36379/bin/../lib/gcc/ba-elf/4.7.4/mcpu_jn51xx_sizeopt\libgcc.a(floatunsisf.o)
                              C:\DOCUME~1\g\LOCALS~1\Temp\ccflNc42.ltrans1.ltrans.o (__floatunsisf)
c:/nxp/bstudio_nxp/sdk/tools/ba-elf-ba2-r36379/bin/../lib/gcc/ba-elf/4.7.4/mcpu_jn51xx_sizeopt\libgcc.a(adddf3.o)
                              C:\DOCUME~1\g\LOCALS~1\Temp\ccflNc42.ltrans4.ltrans.o (__adddf3)
c:/nxp/bstudio_nxp/sdk/tools/ba-elf-ba2-r36379/bin/../lib/gcc/ba-elf/4.7.4/mcpu_jn51xx_sizeopt\libgcc.a(divdf3.o)
                              C:\DOCUME~1\g\LOCALS~1\Temp\ccflNc42.ltrans1.ltrans.o (__divdf3)
c:/nxp/bstudio_nxp/sdk/tools/ba-elf-ba2-r36379/bin/../lib/gcc/ba-elf/4.7.4/mcpu_jn51xx_sizeopt\libgcc.a(gedf2.o)
                              c:/nxp/bstudio_nxp/sdk/tools/ba-elf-ba2-r36379/bin/../lib/gcc/ba-elf/4.7.4/mcpu_jn51xx_sizeopt\libgcc.a(_fixunsdfsi.o) (__gedf2)
c:/nxp/bstudio_nxp/sdk/tools/ba-elf-ba2-r36379/bin/../lib/gcc/ba-elf/4.7.4/mcpu_jn51xx_sizeopt\libgcc.a(muldf3.o)
                              C:\DOCUME~1\g\LOCALS~1\Temp\ccflNc42.ltrans1.ltrans.o (__muldf3)
c:/nxp/bstudio_nxp/sdk/tools/ba-elf-ba2-r36379/bin/../lib/gcc/ba-elf/4.7.4/mcpu_jn51xx_sizeopt\libgcc.a(subdf3.o)
                              C:\DOCUME~1\g\LOCALS~1\Temp\ccflNc42.ltrans4.ltrans.o (__subdf3)
c:/nxp/bstudio_nxp/sdk/tools/ba-elf-ba2-r36379/bin/../lib/gcc/ba-elf/4.7.4/mcpu_jn51xx_sizeopt\libgcc.a(fixdfsi.o)
                              c:/nxp/bstudio_nxp/sdk/tools/ba-elf-ba2-r36379/bin/../lib/gcc/ba-elf/4.7.4/mcpu_jn51xx_sizeopt\libgcc.a(_fixunsdfsi.o) (__fixdfsi)
c:/nxp/bstudio_nxp/sdk/tools/ba-elf-ba2-r36379/bin/../lib/gcc/ba-elf/4.7.4/mcpu_jn51xx_sizeopt\libgcc.a(extendsfdf2.o)
                              C:\DOCUME~1\g\LOCALS~1\Temp\ccflNc42.ltrans1.ltrans.o (__extendsfdf2)
c:/nxp/bstudio_nxp/sdk/tools/ba-elf-ba2-r36379/bin/../lib/gcc/ba-elf/4.7.4/mcpu_jn51xx_sizeopt\libgcc.a(truncdfsf2.o)
                              C:\DOCUME~1\g\LOCALS~1\Temp\ccflNc42.ltrans4.ltrans.o (__truncdfsf2)
c:/NXP/bstudio_nxp/sdk/JN-SW-4168/Components/Library\libOS_JN516x.a(os_version_lc.o)
                              C:\DOCUME~1\g\LOCALS~1\Temp\ccflNc42.ltrans30.ltrans.o (OS_Version_1v2)
c:/NXP/bstudio_nxp/sdk/JN-SW-4168/Components/Library\libZPSAPL_JN516x.a(zps_apl_version_lc.o)
                              C:\DOCUME~1\g\LOCALS~1\Temp\ccflNc42.ltrans1.ltrans.o (ZPS_APL_Version_2v0)
c:/NXP/bstudio_nxp/sdk/JN-SW-4168/Components/Library\libZPSNWK_JN516x.a(zps_nwk_version_lc.o)
                              C:\DOCUME~1\g\LOCALS~1\Temp\ccflNc42.ltrans1.ltrans.o (ZPS_NWK_Version_2v0)
c:/nxp/bstudio_nxp/sdk/tools/ba-elf-ba2-r36379/bin/../lib/gcc/ba-elf/4.7.4/../../../../ba-elf/lib/mcpu_jn51xx_sizeopt\libm.a(lib_a-s_floor.o)
                              C:\DOCUME~1\g\LOCALS~1\Temp\ccflNc42.ltrans4.ltrans.o (floor)

Allocating common symbols
Common symbol       size              file

in                  0x10              c:/NXP/bstudio_nxp/workspace/Custom_ZLL_Lights_someone42/MultiLight/Build/ecb_decrypt.o (symbol from plugin)
bMiniMacConfig_DiscardUnsuccessfulAssocResponses
                    0x1               Mini_Association.o (symbol from plugin)
sStartParams        0x40              c:/NXP/bstudio_nxp/workspace/Custom_ZLL_Lights_someone42/MultiLight/Build/app_light_commission_task.o (symbol from plugin)
out                 0x10              c:/NXP/bstudio_nxp/workspace/Custom_ZLL_Lights_someone42/MultiLight/Build/ecb_decrypt.o (symbol from plugin)
g_tSpiConfiguration
                    0x4               AHI_Flash.o (symbol from plugin)
prMiniMacTofRxHandler
                    0x4               Mini_Running.o (symbol from plugin)
prTickTimeAppCallback
                    0x4               AHI_TickTimer.o (symbol from plugin)
sZllPDDesc          0x18              c:/NXP/bstudio_nxp/workspace/Custom_ZLL_Lights_someone42/MultiLight/Build/app_light_commission_task.o (symbol from plugin)
sMiniMacSecurityPib
                    0xc               Mini_Main.o (symbol from plugin)
bRadioDoze          0x1               Mini_Running.o (symbol from plugin)
au8LevelControlServerAttributeControlBits
                    0x3               c:/NXP/bstudio_nxp/workspace/Custom_ZLL_Lights_someone42/MultiLight/Build/LevelControl.o (symbol from plugin)
au8OnOffServerAttributeControlBits
                    0x4               c:/NXP/bstudio_nxp/workspace/Custom_ZLL_Lights_someone42/MultiLight/Build/OnOff.o (symbol from plugin)
au8ColourControlServerAttributeControlBits
                    0x18              c:/NXP/bstudio_nxp/workspace/Custom_ZLL_Lights_someone42/MultiLight/Build/ColourControl.o (symbol from plugin)
bAHI_ExtendedTemperatureOperation
                    0x1               AHI_System.o (symbol from plugin)
prMiniMac_u32BbcIntCallback
                    0x4               Mini_Main.o (symbol from plugin)
au8IdentifyServerAttributeControlBits
                    0x1               c:/NXP/bstudio_nxp/workspace/Custom_ZLL_Lights_someone42/MultiLight/Build/Identify.o (symbol from plugin)
g_bLegacyHwBugEmulation
                    0x1               AES_CCM_Star.o (symbol from plugin)
Key                 0x10              c:/NXP/bstudio_nxp/workspace/Custom_ZLL_Lights_someone42/MultiLight/Build/ecb_decrypt.o (symbol from plugin)
au8BasicClusterAttributeControlBits
                    0x9               c:/NXP/bstudio_nxp/workspace/Custom_ZLL_Lights_someone42/MultiLight/Build/Basic.o (symbol from plugin)
uAttributeVal       0x10              c:/NXP/bstudio_nxp/workspace/Custom_ZLL_Lights_someone42/MultiLight/Build/zcl_readAttributesResponseHandle.o (symbol from plugin)
u32OldFrameCtr      0x4               c:/NXP/bstudio_nxp/workspace/Custom_ZLL_Lights_someone42/MultiLight/Build/zpr_light_node.o (symbol from plugin)

Discarded input sections

 .text          0x0000000000000000        0x0 c:/NXP/bstudio_nxp/workspace/Custom_ZLL_Lights_someone42/MultiLight/Build/os_gen.o (symbol from plugin)
 .data          0x0000000000000000        0x0 C:\DOCUME~1\g\LOCALS~1\Temp\ccflNc42.ltrans2.ltrans.o
 .bss           0x0000000000000000        0x0 C:\DOCUME~1\g\LOCALS~1\Temp\ccflNc42.ltrans2.ltrans.o
 .data          0x0000000000000000        0x0 C:\DOCUME~1\g\LOCALS~1\Temp\ccflNc42.ltrans3.ltrans.o
 .rodata        0x0000000000000000        0x1 C:\DOCUME~1\g\LOCALS~1\Temp\ccflNc42.ltrans5.ltrans.o
 .data          0x0000000000000000        0x0 C:\DOCUME~1\g\LOCALS~1\Temp\ccflNc42.ltrans6.ltrans.o
 .data          0x0000000000000000        0x0 C:\DOCUME~1\g\LOCALS~1\Temp\ccflNc42.ltrans7.ltrans.o
 .data          0x0000000000000000        0x0 C:\DOCUME~1\g\LOCALS~1\Temp\ccflNc42.ltrans8.ltrans.o
 .data          0x0000000000000000        0x0 C:\DOCUME~1\g\LOCALS~1\Temp\ccflNc42.ltrans9.ltrans.o
 .rodata        0x0000000000000000        0x4 C:\DOCUME~1\g\LOCALS~1\Temp\ccflNc42.ltrans9.ltrans.o
 .data          0x0000000000000000        0x0 C:\DOCUME~1\g\LOCALS~1\Temp\ccflNc42.ltrans10.ltrans.o
 .bss           0x0000000000000000        0x0 C:\DOCUME~1\g\LOCALS~1\Temp\ccflNc42.ltrans10.ltrans.o
 .data          0x0000000000000000        0x0 C:\DOCUME~1\g\LOCALS~1\Temp\ccflNc42.ltrans12.ltrans.o
 .rodata        0x0000000000000000       0x14 C:\DOCUME~1\g\LOCALS~1\Temp\ccflNc42.ltrans12.ltrans.o
 .data          0x0000000000000000        0x0 C:\DOCUME~1\g\LOCALS~1\Temp\ccflNc42.ltrans13.ltrans.o
 .data          0x0000000000000000        0x0 C:\DOCUME~1\g\LOCALS~1\Temp\ccflNc42.ltrans14.ltrans.o
 .bss           0x0000000000000000        0x0 C:\DOCUME~1\g\LOCALS~1\Temp\ccflNc42.ltrans14.ltrans.o
 .data          0x0000000000000000        0x0 C:\DOCUME~1\g\LOCALS~1\Temp\ccflNc42.ltrans16.ltrans.o
 .bss           0x0000000000000000        0x0 C:\DOCUME~1\g\LOCALS~1\Temp\ccflNc42.ltrans17.ltrans.o
 .data          0x0000000000000000        0x0 C:\DOCUME~1\g\LOCALS~1\Temp\ccflNc42.ltrans18.ltrans.o
 .data          0x0000000000000000        0x0 C:\DOCUME~1\g\LOCALS~1\Temp\ccflNc42.ltrans19.ltrans.o
 .bss           0x0000000000000000        0x0 C:\DOCUME~1\g\LOCALS~1\Temp\ccflNc42.ltrans19.ltrans.o
 .data          0x0000000000000000        0x0 C:\DOCUME~1\g\LOCALS~1\Temp\ccflNc42.ltrans21.ltrans.o
 .bss           0x0000000000000000        0x0 C:\DOCUME~1\g\LOCALS~1\Temp\ccflNc42.ltrans21.ltrans.o
 .data          0x0000000000000000        0x0 C:\DOCUME~1\g\LOCALS~1\Temp\ccflNc42.ltrans22.ltrans.o
 .data          0x0000000000000000        0x0 C:\DOCUME~1\g\LOCALS~1\Temp\ccflNc42.ltrans23.ltrans.o
 .bss           0x0000000000000000        0x0 C:\DOCUME~1\g\LOCALS~1\Temp\ccflNc42.ltrans23.ltrans.o
 .data          0x0000000000000000        0x0 C:\DOCUME~1\g\LOCALS~1\Temp\ccflNc42.ltrans25.ltrans.o
 .bss           0x0000000000000000        0x0 C:\DOCUME~1\g\LOCALS~1\Temp\ccflNc42.ltrans25.ltrans.o
 .data          0x0000000000000000        0x0 C:\DOCUME~1\g\LOCALS~1\Temp\ccflNc42.ltrans27.ltrans.o
 .data          0x0000000000000000        0x0 C:\DOCUME~1\g\LOCALS~1\Temp\ccflNc42.ltrans28.ltrans.o
 .rodata        0x0000000000000000        0x1 C:\DOCUME~1\g\LOCALS~1\Temp\ccflNc42.ltrans28.ltrans.o
 .data          0x0000000000000000        0x0 C:\DOCUME~1\g\LOCALS~1\Temp\ccflNc42.ltrans29.ltrans.o
 .data          0x0000000000000000        0x0 C:\DOCUME~1\g\LOCALS~1\Temp\ccflNc42.ltrans31.ltrans.o
 .data          0x0000000000000000        0x0 c:/nxp/bstudio_nxp/sdk/tools/ba-elf-ba2-r36379/bin/../lib/gcc/ba-elf/4.7.4/../../../../ba-elf/lib/mcpu_jn51xx_sizeopt\libc.a(lib_a-memcmp.o)
 .bss           0x0000000000000000        0x0 c:/nxp/bstudio_nxp/sdk/tools/ba-elf-ba2-r36379/bin/../lib/gcc/ba-elf/4.7.4/../../../../ba-elf/lib/mcpu_jn51xx_sizeopt\libc.a(lib_a-memcmp.o)
 .data          0x0000000000000000        0x0 c:/nxp/bstudio_nxp/sdk/tools/ba-elf-ba2-r36379/bin/../lib/gcc/ba-elf/4.7.4/../../../../ba-elf/lib/mcpu_jn51xx_sizeopt\libc.a(lib_a-memcpy.o)
 .bss           0x0000000000000000        0x0 c:/nxp/bstudio_nxp/sdk/tools/ba-elf-ba2-r36379/bin/../lib/gcc/ba-elf/4.7.4/../../../../ba-elf/lib/mcpu_jn51xx_sizeopt\libc.a(lib_a-memcpy.o)
 .data          0x0000000000000000        0x0 c:/nxp/bstudio_nxp/sdk/tools/ba-elf-ba2-r36379/bin/../lib/gcc/ba-elf/4.7.4/../../../../ba-elf/lib/mcpu_jn51xx_sizeopt\libc.a(lib_a-memset.o)
 .bss           0x0000000000000000        0x0 c:/nxp/bstudio_nxp/sdk/tools/ba-elf-ba2-r36379/bin/../lib/gcc/ba-elf/4.7.4/../../../../ba-elf/lib/mcpu_jn51xx_sizeopt\libc.a(lib_a-memset.o)
 .data          0x0000000000000000        0x0 c:/nxp/bstudio_nxp/sdk/tools/ba-elf-ba2-r36379/bin/../lib/gcc/ba-elf/4.7.4/../../../../ba-elf/lib/mcpu_jn51xx_sizeopt\libc.a(lib_a-strlen.o)
 .bss           0x0000000000000000        0x0 c:/nxp/bstudio_nxp/sdk/tools/ba-elf-ba2-r36379/bin/../lib/gcc/ba-elf/4.7.4/../../../../ba-elf/lib/mcpu_jn51xx_sizeopt\libc.a(lib_a-strlen.o)
 .data          0x0000000000000000        0x0 c:/nxp/bstudio_nxp/sdk/tools/ba-elf-ba2-r36379/bin/../lib/gcc/ba-elf/4.7.4/../../../../ba-elf/lib/mcpu_jn51xx_sizeopt\libc.a(lib_a-strncpy.o)
 .bss           0x0000000000000000        0x0 c:/nxp/bstudio_nxp/sdk/tools/ba-elf-ba2-r36379/bin/../lib/gcc/ba-elf/4.7.4/../../../../ba-elf/lib/mcpu_jn51xx_sizeopt\libc.a(lib_a-strncpy.o)
 .data          0x0000000000000000        0x0 c:/nxp/bstudio_nxp/sdk/tools/ba-elf-ba2-r36379/bin/../lib/gcc/ba-elf/4.7.4/mcpu_jn51xx_sizeopt\libgcc.a(__udivsi3.o)
 .bss           0x0000000000000000        0x0 c:/nxp/bstudio_nxp/sdk/tools/ba-elf-ba2-r36379/bin/../lib/gcc/ba-elf/4.7.4/mcpu_jn51xx_sizeopt\libgcc.a(__udivsi3.o)
 .data          0x0000000000000000        0x0 c:/nxp/bstudio_nxp/sdk/tools/ba-elf-ba2-r36379/bin/../lib/gcc/ba-elf/4.7.4/mcpu_jn51xx_sizeopt\libgcc.a(__divsi3.o)
 .bss           0x0000000000000000        0x0 c:/nxp/bstudio_nxp/sdk/tools/ba-elf-ba2-r36379/bin/../lib/gcc/ba-elf/4.7.4/mcpu_jn51xx_sizeopt\libgcc.a(__divsi3.o)
 .data          0x0000000000000000        0x0 c:/nxp/bstudio_nxp/sdk/tools/ba-elf-ba2-r36379/bin/../lib/gcc/ba-elf/4.7.4/mcpu_jn51xx_sizeopt\libgcc.a(__umodsi3.o)
 .bss           0x0000000000000000        0x0 c:/nxp/bstudio_nxp/sdk/tools/ba-elf-ba2-r36379/bin/../lib/gcc/ba-elf/4.7.4/mcpu_jn51xx_sizeopt\libgcc.a(__umodsi3.o)
 .data          0x0000000000000000        0x0 c:/nxp/bstudio_nxp/sdk/tools/ba-elf-ba2-r36379/bin/../lib/gcc/ba-elf/4.7.4/mcpu_jn51xx_sizeopt\libgcc.a(__modsi3.o)
 .bss           0x0000000000000000        0x0 c:/nxp/bstudio_nxp/sdk/tools/ba-elf-ba2-r36379/bin/../lib/gcc/ba-elf/4.7.4/mcpu_jn51xx_sizeopt\libgcc.a(__modsi3.o)
 .data          0x0000000000000000        0x0 c:/nxp/bstudio_nxp/sdk/tools/ba-elf-ba2-r36379/bin/../lib/gcc/ba-elf/4.7.4/mcpu_jn51xx_sizeopt\libgcc.a(_fixunsdfsi.o)
 .bss           0x0000000000000000        0x0 c:/nxp/bstudio_nxp/sdk/tools/ba-elf-ba2-r36379/bin/../lib/gcc/ba-elf/4.7.4/mcpu_jn51xx_sizeopt\libgcc.a(_fixunsdfsi.o)
 .data          0x0000000000000000        0x0 c:/nxp/bstudio_nxp/sdk/tools/ba-elf-ba2-r36379/bin/../lib/gcc/ba-elf/4.7.4/mcpu_jn51xx_sizeopt\libgcc.a(_divdi3.o)
 .bss           0x0000000000000000        0x0 c:/nxp/bstudio_nxp/sdk/tools/ba-elf-ba2-r36379/bin/../lib/gcc/ba-elf/4.7.4/mcpu_jn51xx_sizeopt\libgcc.a(_divdi3.o)
 .eh_frame      0x0000000000000000       0x38 c:/nxp/bstudio_nxp/sdk/tools/ba-elf-ba2-r36379/bin/../lib/gcc/ba-elf/4.7.4/mcpu_jn51xx_sizeopt\libgcc.a(_divdi3.o)
 .data          0x0000000000000000        0x0 c:/nxp/bstudio_nxp/sdk/tools/ba-elf-ba2-r36379/bin/../lib/gcc/ba-elf/4.7.4/mcpu_jn51xx_sizeopt\libgcc.a(_udivdi3.o)
 .bss           0x0000000000000000        0x0 c:/nxp/bstudio_nxp/sdk/tools/ba-elf-ba2-r36379/bin/../lib/gcc/ba-elf/4.7.4/mcpu_jn51xx_sizeopt\libgcc.a(_udivdi3.o)
 .eh_frame      0x0000000000000000       0x38 c:/nxp/bstudio_nxp/sdk/tools/ba-elf-ba2-r36379/bin/../lib/gcc/ba-elf/4.7.4/mcpu_jn51xx_sizeopt\libgcc.a(_udivdi3.o)
 .data          0x0000000000000000        0x0 c:/nxp/bstudio_nxp/sdk/tools/ba-elf-ba2-r36379/bin/../lib/gcc/ba-elf/4.7.4/mcpu_jn51xx_sizeopt\libgcc.a(addsf3.o)
 .bss           0x0000000000000000        0x0 c:/nxp/bstudio_nxp/sdk/tools/ba-elf-ba2-r36379/bin/../lib/gcc/ba-elf/4.7.4/mcpu_jn51xx_sizeopt\libgcc.a(addsf3.o)
 .data          0x0000000000000000        0x0 c:/nxp/bstudio_nxp/sdk/tools/ba-elf-ba2-r36379/bin/../lib/gcc/ba-elf/4.7.4/mcpu_jn51xx_sizeopt\libgcc.a(divsf3.o)
 .bss           0x0000000000000000        0x0 c:/nxp/bstudio_nxp/sdk/tools/ba-elf-ba2-r36379/bin/../lib/gcc/ba-elf/4.7.4/mcpu_jn51xx_sizeopt\libgcc.a(divsf3.o)
 .data          0x0000000000000000        0x0 c:/nxp/bstudio_nxp/sdk/tools/ba-elf-ba2-r36379/bin/../lib/gcc/ba-elf/4.7.4/mcpu_jn51xx_sizeopt\libgcc.a(eqsf2.o)
 .bss           0x0000000000000000        0x0 c:/nxp/bstudio_nxp/sdk/tools/ba-elf-ba2-r36379/bin/../lib/gcc/ba-elf/4.7.4/mcpu_jn51xx_sizeopt\libgcc.a(eqsf2.o)
 .data          0x0000000000000000        0x0 c:/nxp/bstudio_nxp/sdk/tools/ba-elf-ba2-r36379/bin/../lib/gcc/ba-elf/4.7.4/mcpu_jn51xx_sizeopt\libgcc.a(gesf2.o)
 .bss           0x0000000000000000        0x0 c:/nxp/bstudio_nxp/sdk/tools/ba-elf-ba2-r36379/bin/../lib/gcc/ba-elf/4.7.4/mcpu_jn51xx_sizeopt\libgcc.a(gesf2.o)
 .data          0x0000000000000000        0x0 c:/nxp/bstudio_nxp/sdk/tools/ba-elf-ba2-r36379/bin/../lib/gcc/ba-elf/4.7.4/mcpu_jn51xx_sizeopt\libgcc.a(lesf2.o)
 .bss           0x0000000000000000        0x0 c:/nxp/bstudio_nxp/sdk/tools/ba-elf-ba2-r36379/bin/../lib/gcc/ba-elf/4.7.4/mcpu_jn51xx_sizeopt\libgcc.a(lesf2.o)
 .data          0x0000000000000000        0x0 c:/nxp/bstudio_nxp/sdk/tools/ba-elf-ba2-r36379/bin/../lib/gcc/ba-elf/4.7.4/mcpu_jn51xx_sizeopt\libgcc.a(mulsf3.o)
 .bss           0x0000000000000000        0x0 c:/nxp/bstudio_nxp/sdk/tools/ba-elf-ba2-r36379/bin/../lib/gcc/ba-elf/4.7.4/mcpu_jn51xx_sizeopt\libgcc.a(mulsf3.o)
 .data          0x0000000000000000        0x0 c:/nxp/bstudio_nxp/sdk/tools/ba-elf-ba2-r36379/bin/../lib/gcc/ba-elf/4.7.4/mcpu_jn51xx_sizeopt\libgcc.a(subsf3.o)
 .bss           0x0000000000000000        0x0 c:/nxp/bstudio_nxp/sdk/tools/ba-elf-ba2-r36379/bin/../lib/gcc/ba-elf/4.7.4/mcpu_jn51xx_sizeopt\libgcc.a(subsf3.o)
 .data          0x0000000000000000        0x0 c:/nxp/bstudio_nxp/sdk/tools/ba-elf-ba2-r36379/bin/../lib/gcc/ba-elf/4.7.4/mcpu_jn51xx_sizeopt\libgcc.a(fixsfsi.o)
 .bss           0x0000000000000000        0x0 c:/nxp/bstudio_nxp/sdk/tools/ba-elf-ba2-r36379/bin/../lib/gcc/ba-elf/4.7.4/mcpu_jn51xx_sizeopt\libgcc.a(fixsfsi.o)
 .data          0x0000000000000000        0x0 c:/nxp/bstudio_nxp/sdk/tools/ba-elf-ba2-r36379/bin/../lib/gcc/ba-elf/4.7.4/mcpu_jn51xx_sizeopt\libgcc.a(floatunsisf.o)
 .bss           0x0000000000000000        0x0 c:/nxp/bstudio_nxp/sdk/tools/ba-elf-ba2-r36379/bin/../lib/gcc/ba-elf/4.7.4/mcpu_jn51xx_sizeopt\libgcc.a(floatunsisf.o)
 .data          0x0000000000000000        0x0 c:/nxp/bstudio_nxp/sdk/tools/ba-elf-ba2-r36379/bin/../lib/gcc/ba-elf/4.7.4/mcpu_jn51xx_sizeopt\libgcc.a(adddf3.o)
 .bss           0x0000000000000000        0x0 c:/nxp/bstudio_nxp/sdk/tools/ba-elf-ba2-r36379/bin/../lib/gcc/ba-elf/4.7.4/mcpu_jn51xx_sizeopt\libgcc.a(adddf3.o)
 .data          0x0000000000000000        0x0 c:/nxp/bstudio_nxp/sdk/tools/ba-elf-ba2-r36379/bin/../lib/gcc/ba-elf/4.7.4/mcpu_jn51xx_sizeopt\libgcc.a(divdf3.o)
 .bss           0x0000000000000000        0x0 c:/nxp/bstudio_nxp/sdk/tools/ba-elf-ba2-r36379/bin/../lib/gcc/ba-elf/4.7.4/mcpu_jn51xx_sizeopt\libgcc.a(divdf3.o)
 .data          0x0000000000000000        0x0 c:/nxp/bstudio_nxp/sdk/tools/ba-elf-ba2-r36379/bin/../lib/gcc/ba-elf/4.7.4/mcpu_jn51xx_sizeopt\libgcc.a(gedf2.o)
 .bss           0x0000000000000000        0x0 c:/nxp/bstudio_nxp/sdk/tools/ba-elf-ba2-r36379/bin/../lib/gcc/ba-elf/4.7.4/mcpu_jn51xx_sizeopt\libgcc.a(gedf2.o)
 .data          0x0000000000000000        0x0 c:/nxp/bstudio_nxp/sdk/tools/ba-elf-ba2-r36379/bin/../lib/gcc/ba-elf/4.7.4/mcpu_jn51xx_sizeopt\libgcc.a(muldf3.o)
 .bss           0x0000000000000000        0x0 c:/nxp/bstudio_nxp/sdk/tools/ba-elf-ba2-r36379/bin/../lib/gcc/ba-elf/4.7.4/mcpu_jn51xx_sizeopt\libgcc.a(muldf3.o)
 .data          0x0000000000000000        0x0 c:/nxp/bstudio_nxp/sdk/tools/ba-elf-ba2-r36379/bin/../lib/gcc/ba-elf/4.7.4/mcpu_jn51xx_sizeopt\libgcc.a(subdf3.o)
 .bss           0x0000000000000000        0x0 c:/nxp/bstudio_nxp/sdk/tools/ba-elf-ba2-r36379/bin/../lib/gcc/ba-elf/4.7.4/mcpu_jn51xx_sizeopt\libgcc.a(subdf3.o)
 .data          0x0000000000000000        0x0 c:/nxp/bstudio_nxp/sdk/tools/ba-elf-ba2-r36379/bin/../lib/gcc/ba-elf/4.7.4/mcpu_jn51xx_sizeopt\libgcc.a(fixdfsi.o)
 .bss           0x0000000000000000        0x0 c:/nxp/bstudio_nxp/sdk/tools/ba-elf-ba2-r36379/bin/../lib/gcc/ba-elf/4.7.4/mcpu_jn51xx_sizeopt\libgcc.a(fixdfsi.o)
 .data          0x0000000000000000        0x0 c:/nxp/bstudio_nxp/sdk/tools/ba-elf-ba2-r36379/bin/../lib/gcc/ba-elf/4.7.4/mcpu_jn51xx_sizeopt\libgcc.a(extendsfdf2.o)
 .bss           0x0000000000000000        0x0 c:/nxp/bstudio_nxp/sdk/tools/ba-elf-ba2-r36379/bin/../lib/gcc/ba-elf/4.7.4/mcpu_jn51xx_sizeopt\libgcc.a(extendsfdf2.o)
 .data          0x0000000000000000        0x0 c:/nxp/bstudio_nxp/sdk/tools/ba-elf-ba2-r36379/bin/../lib/gcc/ba-elf/4.7.4/mcpu_jn51xx_sizeopt\libgcc.a(truncdfsf2.o)
 .bss           0x0000000000000000        0x0 c:/nxp/bstudio_nxp/sdk/tools/ba-elf-ba2-r36379/bin/../lib/gcc/ba-elf/4.7.4/mcpu_jn51xx_sizeopt\libgcc.a(truncdfsf2.o)
 .data          0x0000000000000000        0x0 c:/NXP/bstudio_nxp/workspace/Custom_ZLL_Lights_someone42/MultiLight/Build/os_irq.o
 .bss           0x0000000000000000        0x0 c:/NXP/bstudio_nxp/workspace/Custom_ZLL_Lights_someone42/MultiLight/Build/os_irq.o
 .data          0x0000000000000000        0x0 c:/NXP/bstudio_nxp/workspace/Custom_ZLL_Lights_someone42/MultiLight/Build/os_irq_alignment.o
 .bss           0x0000000000000000        0x0 c:/NXP/bstudio_nxp/workspace/Custom_ZLL_Lights_someone42/MultiLight/Build/os_irq_alignment.o
 .data          0x0000000000000000        0x0 c:/NXP/bstudio_nxp/workspace/Custom_ZLL_Lights_someone42/MultiLight/Build/os_irq_buserror.o
 .bss           0x0000000000000000        0x0 c:/NXP/bstudio_nxp/workspace/Custom_ZLL_Lights_someone42/MultiLight/Build/os_irq_buserror.o
 .data          0x0000000000000000        0x0 c:/NXP/bstudio_nxp/workspace/Custom_ZLL_Lights_someone42/MultiLight/Build/os_irq_illegalinstruction.o
 .bss           0x0000000000000000        0x0 c:/NXP/bstudio_nxp/workspace/Custom_ZLL_Lights_someone42/MultiLight/Build/os_irq_illegalinstruction.o
 .data          0x0000000000000000        0x0 c:/NXP/bstudio_nxp/workspace/Custom_ZLL_Lights_someone42/MultiLight/Build/os_irq_stackoverflowexception.o
 .bss           0x0000000000000000        0x0 c:/NXP/bstudio_nxp/workspace/Custom_ZLL_Lights_someone42/MultiLight/Build/os_irq_stackoverflowexception.o
 .data          0x0000000000000000        0x0 c:/NXP/bstudio_nxp/workspace/Custom_ZLL_Lights_someone42/MultiLight/Build/os_irq_unimplementedmodule.o
 .bss           0x0000000000000000        0x0 c:/NXP/bstudio_nxp/workspace/Custom_ZLL_Lights_someone42/MultiLight/Build/os_irq_unimplementedmodule.o
 .text          0x0000000000000000        0x0 c:/NXP/bstudio_nxp/workspace/Custom_ZLL_Lights_someone42/MultiLight/Build/pdum_gen.o (symbol from plugin)
 .text          0x0000000000000000        0x0 c:/NXP/bstudio_nxp/workspace/Custom_ZLL_Lights_someone42/MultiLight/Build/pdum_apdu.o
 .data          0x0000000000000000        0x0 c:/NXP/bstudio_nxp/workspace/Custom_ZLL_Lights_someone42/MultiLight/Build/pdum_apdu.o
 .bss           0x0000000000000000        0x0 c:/NXP/bstudio_nxp/workspace/Custom_ZLL_Lights_someone42/MultiLight/Build/pdum_apdu.o
 .text          0x0000000000000000        0x0 c:/NXP/bstudio_nxp/workspace/Custom_ZLL_Lights_someone42/MultiLight/Build/zps_gen.o (symbol from plugin)
 .text          0x0000000000000000        0x0 c:/NXP/bstudio_nxp/workspace/Custom_ZLL_Lights_someone42/MultiLight/Build/app_timer_driver.o (symbol from plugin)
 .text          0x0000000000000000        0x0 c:/NXP/bstudio_nxp/workspace/Custom_ZLL_Lights_someone42/MultiLight/Build/app_start_light.o (symbol from plugin)
 .text          0x0000000000000000        0x0 c:/NXP/bstudio_nxp/workspace/Custom_ZLL_Lights_someone42/MultiLight/Build/app_scenes.o (symbol from plugin)
 .text          0x0000000000000000        0x0 c:/NXP/bstudio_nxp/workspace/Custom_ZLL_Lights_someone42/MultiLight/Build/zpr_light_node.o (symbol from plugin)
 .text          0x0000000000000000        0x0 c:/NXP/bstudio_nxp/workspace/Custom_ZLL_Lights_someone42/MultiLight/Build/ecb_decrypt.o (symbol from plugin)
 .text          0x0000000000000000        0x0 c:/NXP/bstudio_nxp/workspace/Custom_ZLL_Lights_someone42/MultiLight/Build/app_zcl_light_task.o (symbol from plugin)
 .text          0x0000000000000000        0x0 c:/NXP/bstudio_nxp/workspace/Custom_ZLL_Lights_someone42/MultiLight/Build/app_light_commission_task.o (symbol from plugin)
 .text          0x0000000000000000        0x0 c:/NXP/bstudio_nxp/workspace/Custom_ZLL_Lights_someone42/MultiLight/Build/app_light_interpolation.o (symbol from plugin)
 .text          0x0000000000000000        0x0 c:/NXP/bstudio_nxp/workspace/Custom_ZLL_Lights_someone42/MultiLight/Build/app_light_calibration.o (symbol from plugin)
 .text          0x0000000000000000        0x0 c:/NXP/bstudio_nxp/workspace/Custom_ZLL_Lights_someone42/MultiLight/Build/app_temp_sensor.o (symbol from plugin)
 .text          0x0000000000000000        0x0 c:/NXP/bstudio_nxp/workspace/Custom_ZLL_Lights_someone42/MultiLight/Build/appZpsBeaconHandler.o (symbol from plugin)
 .text          0x0000000000000000        0x0 c:/NXP/bstudio_nxp/workspace/Custom_ZLL_Lights_someone42/MultiLight/Build/App_MultiLight.o (symbol from plugin)
 .text          0x0000000000000000        0x0 c:/NXP/bstudio_nxp/workspace/Custom_ZLL_Lights_someone42/MultiLight/Build/DriverBulb_TimerPWM.o (symbol from plugin)
 .text          0x0000000000000000        0x0 c:/NXP/bstudio_nxp/workspace/Custom_ZLL_Lights_someone42/MultiLight/Build/Alarms.o (symbol from plugin)
 .text          0x0000000000000000        0x0 c:/NXP/bstudio_nxp/workspace/Custom_ZLL_Lights_someone42/MultiLight/Build/AlarmsClientCommands.o (symbol from plugin)
 .text          0x0000000000000000        0x0 c:/NXP/bstudio_nxp/workspace/Custom_ZLL_Lights_someone42/MultiLight/Build/AlarmsCommandHandler.o (symbol from plugin)
 .text          0x0000000000000000        0x0 c:/NXP/bstudio_nxp/workspace/Custom_ZLL_Lights_someone42/MultiLight/Build/AlarmsServerCommands.o (symbol from plugin)
 .text          0x0000000000000000        0x0 c:/NXP/bstudio_nxp/workspace/Custom_ZLL_Lights_someone42/MultiLight/Build/AlarmsTableManager.o (symbol from plugin)
 .text          0x0000000000000000        0x0 c:/NXP/bstudio_nxp/workspace/Custom_ZLL_Lights_someone42/MultiLight/Build/AnalogInputBasic.o (symbol from plugin)
 .text          0x0000000000000000        0x0 c:/NXP/bstudio_nxp/workspace/Custom_ZLL_Lights_someone42/MultiLight/Build/AnalogOutputBasic.o (symbol from plugin)
 .text          0x0000000000000000        0x0 c:/NXP/bstudio_nxp/workspace/Custom_ZLL_Lights_someone42/MultiLight/Build/Basic.o (symbol from plugin)
 .text          0x0000000000000000        0x0 c:/NXP/bstudio_nxp/workspace/Custom_ZLL_Lights_someone42/MultiLight/Build/BasicClientCommands.o (symbol from plugin)
 .text          0x0000000000000000        0x0 c:/NXP/bstudio_nxp/workspace/Custom_ZLL_Lights_someone42/MultiLight/Build/BasicCommandHandler.o (symbol from plugin)
 .text          0x0000000000000000        0x0 c:/NXP/bstudio_nxp/workspace/Custom_ZLL_Lights_someone42/MultiLight/Build/BinaryInputBasic.o (symbol from plugin)
 .text          0x0000000000000000        0x0 c:/NXP/bstudio_nxp/workspace/Custom_ZLL_Lights_someone42/MultiLight/Build/BinaryOutputBasic.o (symbol from plugin)
 .text          0x0000000000000000        0x0 c:/NXP/bstudio_nxp/workspace/Custom_ZLL_Lights_someone42/MultiLight/Build/Commissioning.o (symbol from plugin)
 .text          0x0000000000000000        0x0 c:/NXP/bstudio_nxp/workspace/Custom_ZLL_Lights_someone42/MultiLight/Build/DeviceTemperatureConfiguration.o (symbol from plugin)
 .text          0x0000000000000000        0x0 c:/NXP/bstudio_nxp/workspace/Custom_ZLL_Lights_someone42/MultiLight/Build/Diagnostics.o (symbol from plugin)
 .text          0x0000000000000000        0x0 c:/NXP/bstudio_nxp/workspace/Custom_ZLL_Lights_someone42/MultiLight/Build/DoorLock.o (symbol from plugin)
 .text          0x0000000000000000        0x0 c:/NXP/bstudio_nxp/workspace/Custom_ZLL_Lights_someone42/MultiLight/Build/DoorLockCommandHandler.o (symbol from plugin)
 .text          0x0000000000000000        0x0 c:/NXP/bstudio_nxp/workspace/Custom_ZLL_Lights_someone42/MultiLight/Build/DoorLockCommands.o (symbol from plugin)
 .text          0x0000000000000000        0x0 c:/NXP/bstudio_nxp/workspace/Custom_ZLL_Lights_someone42/MultiLight/Build/ElectricalMeasurement.o (symbol from plugin)
 .text          0x0000000000000000        0x0 c:/NXP/bstudio_nxp/workspace/Custom_ZLL_Lights_someone42/MultiLight/Build/Groups.o (symbol from plugin)
 .text          0x0000000000000000        0x0 c:/NXP/bstudio_nxp/workspace/Custom_ZLL_Lights_someone42/MultiLight/Build/GroupsClientCommands.o (symbol from plugin)
 .text          0x0000000000000000        0x0 c:/NXP/bstudio_nxp/workspace/Custom_ZLL_Lights_someone42/MultiLight/Build/GroupsCommandHandler.o (symbol from plugin)
 .text          0x0000000000000000        0x0 c:/NXP/bstudio_nxp/workspace/Custom_ZLL_Lights_someone42/MultiLight/Build/GroupsServerCommands.o (symbol from plugin)
 .text          0x0000000000000000        0x0 c:/NXP/bstudio_nxp/workspace/Custom_ZLL_Lights_someone42/MultiLight/Build/GroupsTableManager.o (symbol from plugin)
 .text          0x0000000000000000        0x0 c:/NXP/bstudio_nxp/workspace/Custom_ZLL_Lights_someone42/MultiLight/Build/Identify.o (symbol from plugin)
 .text          0x0000000000000000        0x0 c:/NXP/bstudio_nxp/workspace/Custom_ZLL_Lights_someone42/MultiLight/Build/IdentifyClientCommands.o (symbol from plugin)
 .text          0x0000000000000000        0x0 c:/NXP/bstudio_nxp/workspace/Custom_ZLL_Lights_someone42/MultiLight/Build/IdentifyCommandHandler.o (symbol from plugin)
 .text          0x0000000000000000        0x0 c:/NXP/bstudio_nxp/workspace/Custom_ZLL_Lights_someone42/MultiLight/Build/IdentifyServerCommands.o (symbol from plugin)
 .text          0x0000000000000000        0x0 c:/NXP/bstudio_nxp/workspace/Custom_ZLL_Lights_someone42/MultiLight/Build/LevelControl.o (symbol from plugin)
 .text          0x0000000000000000        0x0 c:/NXP/bstudio_nxp/workspace/Custom_ZLL_Lights_someone42/MultiLight/Build/LevelControlClientCommands.o (symbol from plugin)
 .text          0x0000000000000000        0x0 c:/NXP/bstudio_nxp/workspace/Custom_ZLL_Lights_someone42/MultiLight/Build/LevelControlCommandHandler.o (symbol from plugin)
 .text          0x0000000000000000        0x0 c:/NXP/bstudio_nxp/workspace/Custom_ZLL_Lights_someone42/MultiLight/Build/MultistateInputBasic.o (symbol from plugin)
 .text          0x0000000000000000        0x0 c:/NXP/bstudio_nxp/workspace/Custom_ZLL_Lights_someone42/MultiLight/Build/MultistateOutputBasic.o (symbol from plugin)
 .text          0x0000000000000000        0x0 c:/NXP/bstudio_nxp/workspace/Custom_ZLL_Lights_someone42/MultiLight/Build/OOSC.o (symbol from plugin)
 .text          0x0000000000000000        0x0 c:/NXP/bstudio_nxp/workspace/Custom_ZLL_Lights_someone42/MultiLight/Build/OnOff.o (symbol from plugin)
 .text          0x0000000000000000        0x0 c:/NXP/bstudio_nxp/workspace/Custom_ZLL_Lights_someone42/MultiLight/Build/OnOffCommandHandler.o (symbol from plugin)
 .text          0x0000000000000000        0x0 c:/NXP/bstudio_nxp/workspace/Custom_ZLL_Lights_someone42/MultiLight/Build/OnOffCommands.o (symbol from plugin)
 .text          0x0000000000000000        0x0 c:/NXP/bstudio_nxp/workspace/Custom_ZLL_Lights_someone42/MultiLight/Build/PollControl.o (symbol from plugin)
 .text          0x0000000000000000        0x0 c:/NXP/bstudio_nxp/workspace/Custom_ZLL_Lights_someone42/MultiLight/Build/PollControlClientCommands.o (symbol from plugin)
 .text          0x0000000000000000        0x0 c:/NXP/bstudio_nxp/workspace/Custom_ZLL_Lights_someone42/MultiLight/Build/PollControlCommandHandler.o (symbol from plugin)
 .text          0x0000000000000000        0x0 c:/NXP/bstudio_nxp/workspace/Custom_ZLL_Lights_someone42/MultiLight/Build/PollControlServerCommands.o (symbol from plugin)
 .text          0x0000000000000000        0x0 c:/NXP/bstudio_nxp/workspace/Custom_ZLL_Lights_someone42/MultiLight/Build/PowerConfiguration.o (symbol from plugin)
 .text          0x0000000000000000        0x0 c:/NXP/bstudio_nxp/workspace/Custom_ZLL_Lights_someone42/MultiLight/Build/Scenes.o (symbol from plugin)
 .text          0x0000000000000000        0x0 c:/NXP/bstudio_nxp/workspace/Custom_ZLL_Lights_someone42/MultiLight/Build/ScenesClientCommands.o (symbol from plugin)
 .text          0x0000000000000000        0x0 c:/NXP/bstudio_nxp/workspace/Custom_ZLL_Lights_someone42/MultiLight/Build/ScenesClusterManagement.o (symbol from plugin)
 .text          0x0000000000000000        0x0 c:/NXP/bstudio_nxp/workspace/Custom_ZLL_Lights_someone42/MultiLight/Build/ScenesCommandHandler.o (symbol from plugin)
 .text          0x0000000000000000        0x0 c:/NXP/bstudio_nxp/workspace/Custom_ZLL_Lights_someone42/MultiLight/Build/ScenesServerCommands.o (symbol from plugin)
 .text          0x0000000000000000        0x0 c:/NXP/bstudio_nxp/workspace/Custom_ZLL_Lights_someone42/MultiLight/Build/ScenesTableManager.o (symbol from plugin)
 .text          0x0000000000000000        0x0 c:/NXP/bstudio_nxp/workspace/Custom_ZLL_Lights_someone42/MultiLight/Build/TC.o (symbol from plugin)
 .text          0x0000000000000000        0x0 c:/NXP/bstudio_nxp/workspace/Custom_ZLL_Lights_someone42/MultiLight/Build/Time.o (symbol from plugin)
 .text          0x0000000000000000        0x0 c:/NXP/bstudio_nxp/workspace/Custom_ZLL_Lights_someone42/MultiLight/Build/zll_CommissionCmdHandler.o (symbol from plugin)
 .text          0x0000000000000000        0x0 c:/NXP/bstudio_nxp/workspace/Custom_ZLL_Lights_someone42/MultiLight/Build/zll_UtilityCmdHandler.o (symbol from plugin)
 .text          0x0000000000000000        0x0 c:/NXP/bstudio_nxp/workspace/Custom_ZLL_Lights_someone42/MultiLight/Build/zll_commission.o (symbol from plugin)
 .text          0x0000000000000000        0x0 c:/NXP/bstudio_nxp/workspace/Custom_ZLL_Lights_someone42/MultiLight/Build/zll_utility.o (symbol from plugin)
 .text          0x0000000000000000        0x0 c:/NXP/bstudio_nxp/workspace/Custom_ZLL_Lights_someone42/MultiLight/Build/colour_light.o (symbol from plugin)
 .text          0x0000000000000000        0x0 c:/NXP/bstudio_nxp/workspace/Custom_ZLL_Lights_someone42/MultiLight/Build/colour_remote.o (symbol from plugin)
 .text          0x0000000000000000        0x0 c:/NXP/bstudio_nxp/workspace/Custom_ZLL_Lights_someone42/MultiLight/Build/colour_scene_remote.o (symbol from plugin)
 .text          0x0000000000000000        0x0 c:/NXP/bstudio_nxp/workspace/Custom_ZLL_Lights_someone42/MultiLight/Build/colour_temperature_light.o (symbol from plugin)
 .text          0x0000000000000000        0x0 c:/NXP/bstudio_nxp/workspace/Custom_ZLL_Lights_someone42/MultiLight/Build/commission_endpoint.o (symbol from plugin)
 .text          0x0000000000000000        0x0 c:/NXP/bstudio_nxp/workspace/Custom_ZLL_Lights_someone42/MultiLight/Build/control_bridge.o (symbol from plugin)
 .text          0x0000000000000000        0x0 c:/NXP/bstudio_nxp/workspace/Custom_ZLL_Lights_someone42/MultiLight/Build/dimmable_light.o (symbol from plugin)
 .text          0x0000000000000000        0x0 c:/NXP/bstudio_nxp/workspace/Custom_ZLL_Lights_someone42/MultiLight/Build/dimmable_plug.o (symbol from plugin)
 .text          0x0000000000000000        0x0 c:/NXP/bstudio_nxp/workspace/Custom_ZLL_Lights_someone42/MultiLight/Build/extended_colour_light.o (symbol from plugin)
 .text          0x0000000000000000        0x0 c:/NXP/bstudio_nxp/workspace/Custom_ZLL_Lights_someone42/MultiLight/Build/non_colour_remote.o (symbol from plugin)
 .text          0x0000000000000000        0x0 c:/NXP/bstudio_nxp/workspace/Custom_ZLL_Lights_someone42/MultiLight/Build/non_colour_scene_remote.o (symbol from plugin)
 .text          0x0000000000000000        0x0 c:/NXP/bstudio_nxp/workspace/Custom_ZLL_Lights_someone42/MultiLight/Build/on_off_light.o (symbol from plugin)
 .text          0x0000000000000000        0x0 c:/NXP/bstudio_nxp/workspace/Custom_ZLL_Lights_someone42/MultiLight/Build/on_off_plug.o (symbol from plugin)
 .text          0x0000000000000000        0x0 c:/NXP/bstudio_nxp/workspace/Custom_ZLL_Lights_someone42/MultiLight/Build/on_off_sensor.o (symbol from plugin)
 .text          0x0000000000000000        0x0 c:/NXP/bstudio_nxp/workspace/Custom_ZLL_Lights_someone42/MultiLight/Build/zll.o (symbol from plugin)
 .text          0x0000000000000000        0x0 c:/NXP/bstudio_nxp/workspace/Custom_ZLL_Lights_someone42/MultiLight/Build/BallastConfiguration.o (symbol from plugin)
 .text          0x0000000000000000        0x0 c:/NXP/bstudio_nxp/workspace/Custom_ZLL_Lights_someone42/MultiLight/Build/ColourControl.o (symbol from plugin)
 .text          0x0000000000000000        0x0 c:/NXP/bstudio_nxp/workspace/Custom_ZLL_Lights_someone42/MultiLight/Build/ColourControlClientCommands.o (symbol from plugin)
 .text          0x0000000000000000        0x0 c:/NXP/bstudio_nxp/workspace/Custom_ZLL_Lights_someone42/MultiLight/Build/ColourControlCommandHandler.o (symbol from plugin)
 .text          0x0000000000000000        0x0 c:/NXP/bstudio_nxp/workspace/Custom_ZLL_Lights_someone42/MultiLight/Build/ColourControlConversions.o (symbol from plugin)
 .text          0x0000000000000000        0x0 c:/NXP/bstudio_nxp/workspace/Custom_ZLL_Lights_someone42/MultiLight/Build/dlist.o (symbol from plugin)
 .text          0x0000000000000000        0x0 c:/NXP/bstudio_nxp/workspace/Custom_ZLL_Lights_someone42/MultiLight/Build/zcl.o (symbol from plugin)
 .text          0x0000000000000000        0x0 c:/NXP/bstudio_nxp/workspace/Custom_ZLL_Lights_someone42/MultiLight/Build/zcl_CustomCommandReceive.o (symbol from plugin)
 .text          0x0000000000000000        0x0 c:/NXP/bstudio_nxp/workspace/Custom_ZLL_Lights_someone42/MultiLight/Build/zcl_CustomCommandSend.o (symbol from plugin)
 .text          0x0000000000000000        0x0 c:/NXP/bstudio_nxp/workspace/Custom_ZLL_Lights_someone42/MultiLight/Build/zcl_PDUbufferReadWrite.o (symbol from plugin)
 .text          0x0000000000000000        0x0 c:/NXP/bstudio_nxp/workspace/Custom_ZLL_Lights_someone42/MultiLight/Build/zcl_PDUbufferReadWriteString.o (symbol from plugin)
 .text          0x0000000000000000        0x0 c:/NXP/bstudio_nxp/workspace/Custom_ZLL_Lights_someone42/MultiLight/Build/zcl_WriteAttributesRequestHandle.o (symbol from plugin)
 .text          0x0000000000000000        0x0 c:/NXP/bstudio_nxp/workspace/Custom_ZLL_Lights_someone42/MultiLight/Build/zcl_WriteAttributesRequestSend.o (symbol from plugin)
 .text          0x0000000000000000        0x0 c:/NXP/bstudio_nxp/workspace/Custom_ZLL_Lights_someone42/MultiLight/Build/zcl_WriteAttributesResponseHandle.o (symbol from plugin)
 .text          0x0000000000000000        0x0 c:/NXP/bstudio_nxp/workspace/Custom_ZLL_Lights_someone42/MultiLight/Build/zcl_attribute.o (symbol from plugin)
 .text          0x0000000000000000        0x0 c:/NXP/bstudio_nxp/workspace/Custom_ZLL_Lights_someone42/MultiLight/Build/zcl_buffer.o (symbol from plugin)
 .text          0x0000000000000000        0x0 c:/NXP/bstudio_nxp/workspace/Custom_ZLL_Lights_someone42/MultiLight/Build/zcl_clusterCommand.o (symbol from plugin)
 .text          0x0000000000000000        0x0 c:/NXP/bstudio_nxp/workspace/Custom_ZLL_Lights_someone42/MultiLight/Build/zcl_command.o (symbol from plugin)
 .text          0x0000000000000000        0x0 c:/NXP/bstudio_nxp/workspace/Custom_ZLL_Lights_someone42/MultiLight/Build/zcl_configureReportingCommandHandle.o (symbol from plugin)
 .text          0x0000000000000000        0x0 c:/NXP/bstudio_nxp/workspace/Custom_ZLL_Lights_someone42/MultiLight/Build/zcl_configureReportingCommandSend.o (symbol from plugin)
 .text          0x0000000000000000        0x0 c:/NXP/bstudio_nxp/workspace/Custom_ZLL_Lights_someone42/MultiLight/Build/zcl_configureReportingResponseHandle.o (symbol from plugin)
 .text          0x0000000000000000        0x0 c:/NXP/bstudio_nxp/workspace/Custom_ZLL_Lights_someone42/MultiLight/Build/zcl_defaultResponse.o (symbol from plugin)
 .text          0x0000000000000000        0x0 c:/NXP/bstudio_nxp/workspace/Custom_ZLL_Lights_someone42/MultiLight/Build/zcl_discoverAttributesExtendedRequestHandle.o (symbol from plugin)
 .text          0x0000000000000000        0x0 c:/NXP/bstudio_nxp/workspace/Custom_ZLL_Lights_someone42/MultiLight/Build/zcl_discoverAttributesExtendedRequestSend.o (symbol from plugin)
 .text          0x0000000000000000        0x0 c:/NXP/bstudio_nxp/workspace/Custom_ZLL_Lights_someone42/MultiLight/Build/zcl_discoverAttributesExtendedResponseHandle.o (symbol from plugin)
 .text          0x0000000000000000        0x0 c:/NXP/bstudio_nxp/workspace/Custom_ZLL_Lights_someone42/MultiLight/Build/zcl_discoverAttributesRequestHandle.o (symbol from plugin)
 .text          0x0000000000000000        0x0 c:/NXP/bstudio_nxp/workspace/Custom_ZLL_Lights_someone42/MultiLight/Build/zcl_discoverAttributesRequestSend.o (symbol from plugin)
 .text          0x0000000000000000        0x0 c:/NXP/bstudio_nxp/workspace/Custom_ZLL_Lights_someone42/MultiLight/Build/zcl_discoverAttributesResponseHandle.o (symbol from plugin)
 .text          0x0000000000000000        0x0 c:/NXP/bstudio_nxp/workspace/Custom_ZLL_Lights_someone42/MultiLight/Build/zcl_discoverCommandsRequestHandle.o (symbol from plugin)
 .text          0x0000000000000000        0x0 c:/NXP/bstudio_nxp/workspace/Custom_ZLL_Lights_someone42/MultiLight/Build/zcl_discoverCommandsRequestSend.o (symbol from plugin)
 .text          0x0000000000000000        0x0 c:/NXP/bstudio_nxp/workspace/Custom_ZLL_Lights_someone42/MultiLight/Build/zcl_discoverCommandsResponseHandle.o (symbol from plugin)
 .text          0x0000000000000000        0x0 c:/NXP/bstudio_nxp/workspace/Custom_ZLL_Lights_someone42/MultiLight/Build/zcl_event.o (symbol from plugin)
 .text          0x0000000000000000        0x0 c:/NXP/bstudio_nxp/workspace/Custom_ZLL_Lights_someone42/MultiLight/Build/zcl_heap.o (symbol from plugin)
 .text          0x0000000000000000        0x0 c:/NXP/bstudio_nxp/workspace/Custom_ZLL_Lights_someone42/MultiLight/Build/zcl_library_options.o (symbol from plugin)
 .text          0x0000000000000000        0x0 c:/NXP/bstudio_nxp/workspace/Custom_ZLL_Lights_someone42/MultiLight/Build/zcl_readAttributesRequestHandle.o (symbol from plugin)
 .text          0x0000000000000000        0x0 c:/NXP/bstudio_nxp/workspace/Custom_ZLL_Lights_someone42/MultiLight/Build/zcl_readAttributesRequestSend.o (symbol from plugin)
 .text          0x0000000000000000        0x0 c:/NXP/bstudio_nxp/workspace/Custom_ZLL_Lights_someone42/MultiLight/Build/zcl_readAttributesResponseHandle.o (symbol from plugin)
 .text          0x0000000000000000        0x0 c:/NXP/bstudio_nxp/workspace/Custom_ZLL_Lights_someone42/MultiLight/Build/zcl_readReportingConfigurationCommandHandle.o (symbol from plugin)
 .text          0x0000000000000000        0x0 c:/NXP/bstudio_nxp/workspace/Custom_ZLL_Lights_someone42/MultiLight/Build/zcl_readReportingConfigurationCommandSend.o (symbol from plugin)
 .text          0x0000000000000000        0x0 c:/NXP/bstudio_nxp/workspace/Custom_ZLL_Lights_someone42/MultiLight/Build/zcl_readReportingConfigurationResponseHandle.o (symbol from plugin)
 .text          0x0000000000000000        0x0 c:/NXP/bstudio_nxp/workspace/Custom_ZLL_Lights_someone42/MultiLight/Build/zcl_reportManager.o (symbol from plugin)
 .text          0x0000000000000000        0x0 c:/NXP/bstudio_nxp/workspace/Custom_ZLL_Lights_someone42/MultiLight/Build/zcl_reportMaths.o (symbol from plugin)
 .text          0x0000000000000000        0x0 c:/NXP/bstudio_nxp/workspace/Custom_ZLL_Lights_someone42/MultiLight/Build/zcl_reportScheduler.o (symbol from plugin)
 .text          0x0000000000000000        0x0 c:/NXP/bstudio_nxp/workspace/Custom_ZLL_Lights_someone42/MultiLight/Build/zcl_reportStringHandling.o (symbol from plugin)
 .text          0x0000000000000000        0x0 c:/NXP/bstudio_nxp/workspace/Custom_ZLL_Lights_someone42/MultiLight/Build/zcl_reportStructure.o (symbol from plugin)
 .text          0x0000000000000000        0x0 c:/NXP/bstudio_nxp/workspace/Custom_ZLL_Lights_someone42/MultiLight/Build/zcl_search.o (symbol from plugin)
 .text          0x0000000000000000        0x0 c:/NXP/bstudio_nxp/workspace/Custom_ZLL_Lights_someone42/MultiLight/Build/zcl_timer.o (symbol from plugin)
 .text          0x0000000000000000        0x0 c:/NXP/bstudio_nxp/workspace/Custom_ZLL_Lights_someone42/MultiLight/Build/zcl_transmit.o (symbol from plugin)
 .text          0x0000000000000000        0x0 os.o (symbol from plugin)
 .data          0x0000000000000000        0x0 c:/NXP/bstudio_nxp/sdk/JN-SW-4168/Components/Library\libOS_JN516x.a(os_contirq_JN516x.o)
 .bss           0x0000000000000000        0x0 c:/NXP/bstudio_nxp/sdk/JN-SW-4168/Components/Library\libOS_JN516x.a(os_contirq_JN516x.o)
 .text          0x0000000000000000        0x0 pwrm.o (symbol from plugin)
 .data          0x0000000000000000        0x0 c:/NXP/bstudio_nxp/sdk/JN-SW-4168/Components/Library\libPWRM_JN516x.a(pwrm_setjmp_JN516x.o)
 .bss           0x0000000000000000        0x0 c:/NXP/bstudio_nxp/sdk/JN-SW-4168/Components/Library\libPWRM_JN516x.a(pwrm_setjmp_JN516x.o)
 .text          0x0000000000000000        0x0 pwrm_cold_start.o (symbol from plugin)
 .text          0x0000000000000000        0x0 pwrm_warm_start.o (symbol from plugin)
 .text          0x0000000000000000        0x0 pdum_nwk.o (symbol from plugin)
 .text          0x0000000000000000        0x0 pdum_apl.o (symbol from plugin)
 .text          0x0000000000000000        0x0 pdum.o (symbol from plugin)
 .text          0x0000000000000000        0x0 zps_apl_af.o (symbol from plugin)
 .text          0x0000000000000000        0x0 zps_apl_af_apsde.o (symbol from plugin)
 .text          0x0000000000000000        0x0 zps_apl_task.o (symbol from plugin)
 .text          0x0000000000000000        0x0 zps_apl_apsde.o (symbol from plugin)
 .text          0x0000000000000000        0x0 zps_apl_apsme.o (symbol from plugin)
 .text          0x0000000000000000        0x0 zps_apl_aps_nlde.o (symbol from plugin)
 .text          0x0000000000000000        0x0 zps_apl_sec.o (symbol from plugin)
 .text          0x0000000000000000        0x0 zps_apl_aib.o (symbol from plugin)
 .text          0x0000000000000000        0x0 zps_apl_zdo_nwkmanager.o (symbol from plugin)
 .text          0x0000000000000000        0x0 zps_apl_zdo_handle_zdp_event.o (symbol from plugin)
 .text          0x0000000000000000        0x0 zps_apl_zdo_trust_center.o (symbol from plugin)
 .text          0x0000000000000000        0x0 zps_apl_zdo_common.o (symbol from plugin)
 .text          0x0000000000000000        0x0 zps_apl_zdo_group.o (symbol from plugin)
 .text          0x0000000000000000        0x0 zps_apl_zdo_default_server.o (symbol from plugin)
 .text          0x0000000000000000        0x0 zps_apl_mac_isr.o (symbol from plugin)
 .text          0x0000000000000000        0x0 zps_apl_zdo_nwk_addr_server.o (symbol from plugin)
 .text          0x0000000000000000        0x0 zps_apl_zdo_ieee_addr_server.o (symbol from plugin)
 .text          0x0000000000000000        0x0 zps_apl_zdo_match_desc_server.o (symbol from plugin)
 .text          0x0000000000000000        0x0 zps_apl_zdo_node_desc_server.o (symbol from plugin)
 .text          0x0000000000000000        0x0 zps_apl_zdo_simple_desc_server.o (symbol from plugin)
 .text          0x0000000000000000        0x0 zps_apl_zdo_power_desc_server.o (symbol from plugin)
 .text          0x0000000000000000        0x0 zps_apl_zdo_active_ep_server.o (symbol from plugin)
 .text          0x0000000000000000        0x0 zps_apl_zdo_device_annce_server.o (symbol from plugin)
 .text          0x0000000000000000        0x0 zps_apl_zdo_permit_joining_server.o (symbol from plugin)
 .text          0x0000000000000000        0x0 zps_apl_zdo_system_server_discovery_server.o (symbol from plugin)
 .text          0x0000000000000000        0x0 zps_apl_zdo_mgmt_lqi_server.o (symbol from plugin)
 .text          0x0000000000000000        0x0 zps_apl_zdo_mgmt_rtg_server.o (symbol from plugin)
 .text          0x0000000000000000        0x0 zps_apl_zdo_mgmt_leave_server.o (symbol from plugin)
 .text          0x0000000000000000        0x0 zps_apl_zdo_mgmt_nwk_update_server.o (symbol from plugin)
 .text          0x0000000000000000        0x0 zps_apl_zdo_bound_data_request_manager.o (symbol from plugin)
 .text          0x0000000000000000        0x0 zps_apl_zdo_nwkmanager_client.o (symbol from plugin)
 .text          0x0000000000000000        0x0 zps_apl_zdp_apsde_req.o (symbol from plugin)
 .text          0x0000000000000000        0x0 zps_apl_zdp_device_annce.o (symbol from plugin)
 .text          0x0000000000000000        0x0 zps_apl_zdp_nwk_addr_rsp.o (symbol from plugin)
 .text          0x0000000000000000        0x0 zps_apl_zdp_ieee_addr_rsp.o (symbol from plugin)
 .text          0x0000000000000000        0x0 zps_apl_zdp_node_desc_rsp.o (symbol from plugin)
 .text          0x0000000000000000        0x0 zps_apl_zdp_power_desc_rsp.o (symbol from plugin)
 .text          0x0000000000000000        0x0 zps_apl_zdp_simple_desc_rsp.o (symbol from plugin)
 .text          0x0000000000000000        0x0 zps_apl_zdp_active_ep_rsp.o (symbol from plugin)
 .text          0x0000000000000000        0x0 zps_apl_zdp_match_desc_rsp.o (symbol from plugin)
 .text          0x0000000000000000        0x0 zps_apl_zdp_system_server_discovery_rsp.o (symbol from plugin)
 .text          0x0000000000000000        0x0 zps_apl_zdp_mgmt_lqi_rsp.o (symbol from plugin)
 .text          0x0000000000000000        0x0 zps_apl_zdp_mgmt_rtg_rsp.o (symbol from plugin)
 .text          0x0000000000000000        0x0 zps_apl_zdp_mgmt_leave_rsp.o (symbol from plugin)
 .text          0x0000000000000000        0x0 zps_apl_zdp_mgmt_nwk_update_notify_rsp.o (symbol from plugin)
 .text          0x0000000000000000        0x0 zps_apl_zdp_mgmt_permit_joining_rsp.o (symbol from plugin)
 .text          0x0000000000000000        0x0 zps_apl_zdo_bind_unbind_server.o (symbol from plugin)
 .text          0x0000000000000000        0x0 zps_apl_zdp_bind_rsp.o (symbol from plugin)
 .text          0x0000000000000000        0x0 zps_apl_zdp_unbind_rsp.o (symbol from plugin)
 .text          0x0000000000000000        0x0 rnd_main.o (symbol from plugin)
 .text          0x0000000000000000        0x0 PDM_Create.o (symbol from plugin)
 .text          0x0000000000000000        0x0 PDM_EEPROMsegmentStatus.o (symbol from plugin)
 .text          0x0000000000000000        0x0 PDM_FileSystem.o (symbol from plugin)
 .text          0x0000000000000000        0x0 PDM_FileSystemData.o (symbol from plugin)
 .text          0x0000000000000000        0x0 PDM_FileSystemGenerate.o (symbol from plugin)
 .text          0x0000000000000000        0x0 PDM_FileSystemHeaderAccessFunctions.o (symbol from plugin)
 .text          0x0000000000000000        0x0 PDM_FileSystemHeaderRepair.o (symbol from plugin)
 .text          0x0000000000000000        0x0 PDM_FileSystemHeaderVerify.o (symbol from plugin)
 .text          0x0000000000000000        0x0 PDM_FileSystemMove.o (symbol from plugin)
 .text          0x0000000000000000        0x0 PDM_FileSystemVerify.o (symbol from plugin)
 .text          0x0000000000000000        0x0 PDM_ImageBitmapReconstruct.o (symbol from plugin)
 .text          0x0000000000000000        0x0 PDM_SearchAndListOrder.o (symbol from plugin)
 .text          0x0000000000000000        0x0 PDM_Segment.o (symbol from plugin)
 .text          0x0000000000000000        0x0 PDM_SegmentData.o (symbol from plugin)
 .text          0x0000000000000000        0x0 PDM_SegmentReplace.o (symbol from plugin)
 .text          0x0000000000000000        0x0 PDM_SegmentSequenceExtendDelete.o (symbol from plugin)
 .text          0x0000000000000000        0x0 PDM_SegmentSequenceExtendReconstruct.o (symbol from plugin)
 .text          0x0000000000000000        0x0 PDM_SegmentSequenceSave.o (symbol from plugin)
 .text          0x0000000000000000        0x0 PDM_slist.o (symbol from plugin)
 .text          0x0000000000000000        0x0 PDM_WearLevelling.o (symbol from plugin)
 .text          0x0000000000000000        0x0 PDM_Bitmap.o (symbol from plugin)
 .text          0x0000000000000000        0x0 PDM_EEPROMheaderAccessFunctions.o (symbol from plugin)
 .text          0x0000000000000000        0x0 PDM_EEPROMheaderReadAndWrite.o (symbol from plugin)
 .text          0x0000000000000000        0x0 PDM_EEPROMReadAndWrite.o (symbol from plugin)
 .text          0x0000000000000000        0x0 PDM_FileSystemDelete.o (symbol from plugin)
 .text          0x0000000000000000        0x0 PDM_FileSystemHeaderChecksum.o (symbol from plugin)
 .text          0x0000000000000000        0x0 PDM_SegmentSequenceExtendFilter.o (symbol from plugin)
 .text          0x0000000000000000        0x0 PDM_EEPROM.o (symbol from plugin)
 .text          0x0000000000000000        0x0 dbg.o (symbol from plugin)
 .text          0x0000000000000000        0x0 dbg_uart.o (symbol from plugin)
 .text          0x0000000000000000        0x0 dbg_exceptions.o (symbol from plugin)
 .text          0x0000000000000000        0x0 zps_apl_zll.o (symbol from plugin)
 .text          0x0000000000000000        0x0 zps_apl_options.o (symbol from plugin)
 .text          0x0000000000000000        0x0 zps_nwk_dcim.o (symbol from plugin)
 .text          0x0000000000000000        0x0 zps_nwk_lib.o (symbol from plugin)
 .text          0x0000000000000000        0x0 zps_nwk_lkst.o (symbol from plugin)
 .text          0x0000000000000000        0x0 zps_nwk_main.o (symbol from plugin)
 .text          0x0000000000000000        0x0 zps_nwk_maint.o (symbol from plugin)
 .text          0x0000000000000000        0x0 zps_nwk_mcps.o (symbol from plugin)
 .text          0x0000000000000000        0x0 zps_nwk_mlme.o (symbol from plugin)
 .text          0x0000000000000000        0x0 zps_nwk_nib.o (symbol from plugin)
 .text          0x0000000000000000        0x0 zps_nwk_nlde.o (symbol from plugin)
 .text          0x0000000000000000        0x0 zps_nwk_nlme.o (symbol from plugin)
 .text          0x0000000000000000        0x0 zps_nwk_pmjn.o (symbol from plugin)
 .text          0x0000000000000000        0x0 zps_nwk_rt.o (symbol from plugin)
 .text          0x0000000000000000        0x0 zps_nwk_sec.o (symbol from plugin)
 .text          0x0000000000000000        0x0 zps_nwk_slist.o (symbol from plugin)
 .text          0x0000000000000000        0x0 zps_nwk_actv_st.o (symbol from plugin)
 .text          0x0000000000000000        0x0 zps_nwk_btt.o (symbol from plugin)
 .text          0x0000000000000000        0x0 zps_nwk_disc.o (symbol from plugin)
 .text          0x0000000000000000        0x0 zps_nwk_disc_st.o (symbol from plugin)
 .text          0x0000000000000000        0x0 zps_nwk_form_st.o (symbol from plugin)
 .text          0x0000000000000000        0x0 zps_nwk_frm.o (symbol from plugin)
 .text          0x0000000000000000        0x0 zps_nwk_idle_st.o (symbol from plugin)
 .text          0x0000000000000000        0x0 zps_nwk_join.o (symbol from plugin)
 .text          0x0000000000000000        0x0 zps_nwk_join_st.o (symbol from plugin)
 .text          0x0000000000000000        0x0 zps_nwk_leave.o (symbol from plugin)
 .text          0x0000000000000000        0x0 zps_nwk_mac.o (symbol from plugin)
 .text          0x0000000000000000        0x0 zps_nwk_scan.o (symbol from plugin)
 .text          0x0000000000000000        0x0 zps_nwk_sync.o (symbol from plugin)
 .text          0x0000000000000000        0x0 zps_nwk_form.o (symbol from plugin)
 .text          0x0000000000000000        0x0 Mini_Main.o (symbol from plugin)
 .text          0x0000000000000000        0x0 Mini_Mcps.o (symbol from plugin)
 .text          0x0000000000000000        0x0 Mini_TimerServer.o (symbol from plugin)
 .text          0x0000000000000000        0x0 Mini_TxRx.o (symbol from plugin)
 .text          0x0000000000000000        0x0 Endian.o (symbol from plugin)
 .text          0x0000000000000000        0x0 Mini_Association.o (symbol from plugin)
 .text          0x0000000000000000        0x0 Mini_Running.o (symbol from plugin)
 .text          0x0000000000000000        0x0 Mini_Scan.o (symbol from plugin)
 .text          0x0000000000000000        0x0 Mini_Poll.o (symbol from plugin)
 .text          0x0000000000000000        0x0 Mini_Shim.o (symbol from plugin)
 .text          0x0000000000000000        0x0 MMAC.o (symbol from plugin)
 .text          0x0000000000000000        0x0 MMAC_RadioInit_JN5169.o (symbol from plugin)
 .text          0x0000000000000000        0x0 JPT_RadioTxPowerTests.o (symbol from plugin)
 .text          0x0000000000000000        0x0 JPT_RadioSettings_JN5169.o (symbol from plugin)
 .text          0x0000000000000000        0x0 AEScoprocessorAPI.o (symbol from plugin)
 .text          0x0000000000000000        0x0 AEScoprocessorECB.o (symbol from plugin)
 .text          0x0000000000000000        0x0 AES_CCM_Star.o (symbol from plugin)
 .text          0x0000000000000000        0x0 AHI_Analogue.o (symbol from plugin)
 .text          0x0000000000000000        0x0 AHI_Dio.o (symbol from plugin)
 .text          0x0000000000000000        0x0 AHI_Reset.o (symbol from plugin)
 .text          0x0000000000000000        0x0 AHI_System.o (symbol from plugin)
 .text          0x0000000000000000        0x0 AHI_Timer.o (symbol from plugin)
 .text          0x0000000000000000        0x0 AHI_TimerInt.o (symbol from plugin)
 .text          0x0000000000000000        0x0 AHI_Uart.o (symbol from plugin)
 .text          0x0000000000000000        0x0 AHI_WakeTimer.o (symbol from plugin)
 .text          0x0000000000000000        0x0 AHI_Flash.o (symbol from plugin)
 .text          0x0000000000000000        0x0 AHI_Infrared.o (symbol from plugin)
 .text          0x0000000000000000        0x0 InternalFlashApi.o (symbol from plugin)
 .text          0x0000000000000000        0x0 EEP_EEPROM.o (symbol from plugin)
 .text          0x0000000000000000        0x0 AHI_TickTimer.o (symbol from plugin)
 .data          0x0000000000000000        0x0 c:/NXP/bstudio_nxp/sdk/JN-SW-4168/Components/Library\libHardwareApi_JN5169.a(AHI_Interrupt.o)
 .bss           0x0000000000000000        0x0 c:/NXP/bstudio_nxp/sdk/JN-SW-4168/Components/Library\libHardwareApi_JN5169.a(AHI_Interrupt.o)
 .text          0x0000000000000000        0x0 AHI_Spi.o (symbol from plugin)
 .text          0x0000000000000000        0x0 MicroInt_ba.o (symbol from plugin)
 .text          0x0000000000000000        0x0 c:/NXP/bstudio_nxp/sdk/JN-SW-4168/Components/Library\libMicroSpecific_JN516x.a(MicroSyscall_ba.o)
 .data          0x0000000000000000        0x0 c:/NXP/bstudio_nxp/sdk/JN-SW-4168/Components/Library\libMicroSpecific_JN516x.a(MicroSyscall_ba.o)
 .bss           0x0000000000000000        0x0 c:/NXP/bstudio_nxp/sdk/JN-SW-4168/Components/Library\libMicroSpecific_JN516x.a(MicroSyscall_ba.o)
 .text          0x0000000000000000        0x0 Heap.o (symbol from plugin)
 .text          0x0000000000000000        0x0 c:/NXP/bstudio_nxp/sdk/JN-SW-4168/Components/Library\libBoot_JN516x.a(ExceptionHandler.o)
 .data          0x0000000000000000        0x0 c:/NXP/bstudio_nxp/sdk/JN-SW-4168/Components/Library\libBoot_JN516x.a(ExceptionHandler.o)
 .bss           0x0000000000000000        0x0 c:/NXP/bstudio_nxp/sdk/JN-SW-4168/Components/Library\libBoot_JN516x.a(ExceptionHandler.o)
 .vsr_handlers  0x0000000000000000       0xa7 c:/NXP/bstudio_nxp/sdk/JN-SW-4168/Components/Library\libBoot_JN516x.a(ExceptionHandler.o)
 .text          0x0000000000000000        0x0 zps_miniMac.o (symbol from plugin)
 .text          0x0000000000000000        0x0 zps_tsv.o (symbol from plugin)
 .text          0x0000000000000000        0x0 aes_sw_hmac_mmo.o (symbol from plugin)
 .text          0x0000000000000000        0x0 aes_sw_mmo.o (symbol from plugin)
 .text          0x0000000000000000        0x0 zps_apl_inl.o (symbol from plugin)
 .text          0x0000000000000000        0x0 zps_apl_zdo_bind_manager.o (symbol from plugin)
 .text          0x0000000000000000        0x0 zps_apl_zdp_active_ep_req.o (symbol from plugin)
 .text          0x0000000000000000        0x0 zps_apl_zdp_active_ep_store_req.o (symbol from plugin)
 .text          0x0000000000000000        0x0 zps_apl_zdp_backup_source_bind_req.o (symbol from plugin)
 .text          0x0000000000000000        0x0 zps_apl_zdp_bind_register_req.o (symbol from plugin)
 .text          0x0000000000000000        0x0 zps_apl_zdp_bind_unbind_req.o (symbol from plugin)
 .text          0x0000000000000000        0x0 zps_apl_zdp_bkup_bind_table_req.o (symbol from plugin)
 .text          0x0000000000000000        0x0 zps_apl_zdp_complex_desc_req.o (symbol from plugin)
 .text          0x0000000000000000        0x0 zps_apl_zdp_discovery_cache_req.o (symbol from plugin)
 .text          0x0000000000000000        0x0 zps_apl_zdp_discovery_store_req.o (symbol from plugin)
 .text          0x0000000000000000        0x0 zps_apl_zdp_end_device_bind_req.o (symbol from plugin)
 .text          0x0000000000000000        0x0 zps_apl_zdp_extended_active_ep_req.o (symbol from plugin)
 .text          0x0000000000000000        0x0 zps_apl_zdp_extended_simple_desc_req.o (symbol from plugin)
 .text          0x0000000000000000        0x0 zps_apl_zdp_find_node_cache_req.o (symbol from plugin)
 .text          0x0000000000000000        0x0 zps_apl_zdp_ieee_addr_req.o (symbol from plugin)
 .text          0x0000000000000000        0x0 zps_apl_zdp_match_desc_req.o (symbol from plugin)
 .text          0x0000000000000000        0x0 zps_apl_zdp_mgmt_bind_req.o (symbol from plugin)
 .text          0x0000000000000000        0x0 zps_apl_zdp_mgmt_cache_req.o (symbol from plugin)
 .text          0x0000000000000000        0x0 zps_apl_zdp_mgmt_direct_join_req.o (symbol from plugin)
 .text          0x0000000000000000        0x0 zps_apl_zdp_mgmt_leave_req.o (symbol from plugin)
 .text          0x0000000000000000        0x0 zps_apl_zdp_mgmt_lqi_req.o (symbol from plugin)
 .text          0x0000000000000000        0x0 zps_apl_zdp_mgmt_nwk_disc_req.o (symbol from plugin)
 .text          0x0000000000000000        0x0 zps_apl_zdp_mgmt_nwk_update_req.o (symbol from plugin)
 .text          0x0000000000000000        0x0 zps_apl_zdp_mgmt_permit_joining_req.o (symbol from plugin)
 .text          0x0000000000000000        0x0 zps_apl_zdp_mgmt_rtg_req.o (symbol from plugin)
 .text          0x0000000000000000        0x0 zps_apl_zdp_node_desc_req.o (symbol from plugin)
 .text          0x0000000000000000        0x0 zps_apl_zdp_nwk_addr_req.o (symbol from plugin)
 .text          0x0000000000000000        0x0 zps_apl_zdp_power_desc_req.o (symbol from plugin)
 .text          0x0000000000000000        0x0 zps_apl_zdp_power_desc_store_req.o (symbol from plugin)
 .text          0x0000000000000000        0x0 zps_apl_zdp_recover_bind_table_req.o (symbol from plugin)
 .text          0x0000000000000000        0x0 zps_apl_zdp_recover_source_bind_req.o (symbol from plugin)
 .text          0x0000000000000000        0x0 zps_apl_zdp_remove_bkup_bind_entry_req.o (symbol from plugin)
 .text          0x0000000000000000        0x0 zps_apl_zdp_remove_node_cache_req.o (symbol from plugin)
 .text          0x0000000000000000        0x0 zps_apl_zdp_replace_device_req.o (symbol from plugin)
 .text          0x0000000000000000        0x0 zps_apl_zdp_simple_desc_req.o (symbol from plugin)
 .text          0x0000000000000000        0x0 zps_apl_zdp_simple_desc_store_req.o (symbol from plugin)
 .text          0x0000000000000000        0x0 zps_apl_zdp_system_server_discovery_req.o (symbol from plugin)
 .text          0x0000000000000000        0x0 zps_apl_zdp_store_bkup_bind_entry_req.o (symbol from plugin)
 .text          0x0000000000000000        0x0 zps_apl_zdp_node_desc_store_req.o (symbol from plugin)
 .text          0x0000000000000000        0x0 zps_apl_zdp_user_desc_req.o (symbol from plugin)
 .text          0x0000000000000000        0x0 zps_apl_zdp_user_desc_set.o (symbol from plugin)
 .data          0x0000000000000000        0x0 c:/NXP/bstudio_nxp/sdk/JN-SW-4168/Components/Library\libOS_JN516x.a(os_version_lc.o)
 .bss           0x0000000000000000        0x0 c:/NXP/bstudio_nxp/sdk/JN-SW-4168/Components/Library\libOS_JN516x.a(os_version_lc.o)
 .data          0x0000000000000000        0x0 c:/NXP/bstudio_nxp/sdk/JN-SW-4168/Components/Library\libZPSAPL_JN516x.a(zps_apl_version_lc.o)
 .bss           0x0000000000000000        0x0 c:/NXP/bstudio_nxp/sdk/JN-SW-4168/Components/Library\libZPSAPL_JN516x.a(zps_apl_version_lc.o)
 .data          0x0000000000000000        0x0 c:/NXP/bstudio_nxp/sdk/JN-SW-4168/Components/Library\libZPSNWK_JN516x.a(zps_nwk_version_lc.o)
 .bss           0x0000000000000000        0x0 c:/NXP/bstudio_nxp/sdk/JN-SW-4168/Components/Library\libZPSNWK_JN516x.a(zps_nwk_version_lc.o)
 .data          0x0000000000000000        0x0 c:/nxp/bstudio_nxp/sdk/tools/ba-elf-ba2-r36379/bin/../lib/gcc/ba-elf/4.7.4/../../../../ba-elf/lib/mcpu_jn51xx_sizeopt\libm.a(lib_a-s_floor.o)
 .bss           0x0000000000000000        0x0 c:/nxp/bstudio_nxp/sdk/tools/ba-elf-ba2-r36379/bin/../lib/gcc/ba-elf/4.7.4/../../../../ba-elf/lib/mcpu_jn51xx_sizeopt\libm.a(lib_a-s_floor.o)

Memory Configuration

Name             Origin             Length             Attributes
flash            0x0000000000080000 0x0000000000080000
ram              0x000000000400004c 0x0000000000007fb4
*default*        0x0000000000000000 0xffffffffffffffff

Linker script and memory map

                0x0000000000000fa0                __stack_size = 0xfa0
                0x00000000000003e8                __minimum_heap_size = 0x3e8
START GROUP
LOAD c:/NXP/bstudio_nxp/workspace/Custom_ZLL_Lights_someone42/MultiLight/Build/os_gen.o
LOAD C:\DOCUME~1\g\LOCALS~1\Temp\ccflNc42.ltrans0.ltrans.o
LOAD C:\DOCUME~1\g\LOCALS~1\Temp\ccflNc42.ltrans1.ltrans.o
LOAD C:\DOCUME~1\g\LOCALS~1\Temp\ccflNc42.ltrans2.ltrans.o
LOAD C:\DOCUME~1\g\LOCALS~1\Temp\ccflNc42.ltrans3.ltrans.o
LOAD C:\DOCUME~1\g\LOCALS~1\Temp\ccflNc42.ltrans4.ltrans.o
LOAD C:\DOCUME~1\g\LOCALS~1\Temp\ccflNc42.ltrans5.ltrans.o
LOAD C:\DOCUME~1\g\LOCALS~1\Temp\ccflNc42.ltrans6.ltrans.o
LOAD C:\DOCUME~1\g\LOCALS~1\Temp\ccflNc42.ltrans7.ltrans.o
LOAD C:\DOCUME~1\g\LOCALS~1\Temp\ccflNc42.ltrans8.ltrans.o
LOAD C:\DOCUME~1\g\LOCALS~1\Temp\ccflNc42.ltrans9.ltrans.o
LOAD C:\DOCUME~1\g\LOCALS~1\Temp\ccflNc42.ltrans10.ltrans.o
LOAD C:\DOCUME~1\g\LOCALS~1\Temp\ccflNc42.ltrans11.ltrans.o
LOAD C:\DOCUME~1\g\LOCALS~1\Temp\ccflNc42.ltrans12.ltrans.o
LOAD C:\DOCUME~1\g\LOCALS~1\Temp\ccflNc42.ltrans13.ltrans.o
LOAD C:\DOCUME~1\g\LOCALS~1\Temp\ccflNc42.ltrans14.ltrans.o
LOAD C:\DOCUME~1\g\LOCALS~1\Temp\ccflNc42.ltrans15.ltrans.o
LOAD C:\DOCUME~1\g\LOCALS~1\Temp\ccflNc42.ltrans16.ltrans.o
LOAD C:\DOCUME~1\g\LOCALS~1\Temp\ccflNc42.ltrans17.ltrans.o
LOAD C:\DOCUME~1\g\LOCALS~1\Temp\ccflNc42.ltrans18.ltrans.o
LOAD C:\DOCUME~1\g\LOCALS~1\Temp\ccflNc42.ltrans19.ltrans.o
LOAD C:\DOCUME~1\g\LOCALS~1\Temp\ccflNc42.ltrans20.ltrans.o
LOAD C:\DOCUME~1\g\LOCALS~1\Temp\ccflNc42.ltrans21.ltrans.o
LOAD C:\DOCUME~1\g\LOCALS~1\Temp\ccflNc42.ltrans22.ltrans.o
LOAD C:\DOCUME~1\g\LOCALS~1\Temp\ccflNc42.ltrans23.ltrans.o
LOAD C:\DOCUME~1\g\LOCALS~1\Temp\ccflNc42.ltrans24.ltrans.o
LOAD C:\DOCUME~1\g\LOCALS~1\Temp\ccflNc42.ltrans25.ltrans.o
LOAD C:\DOCUME~1\g\LOCALS~1\Temp\ccflNc42.ltrans26.ltrans.o
LOAD C:\DOCUME~1\g\LOCALS~1\Temp\ccflNc42.ltrans27.ltrans.o
LOAD C:\DOCUME~1\g\LOCALS~1\Temp\ccflNc42.ltrans28.ltrans.o
LOAD C:\DOCUME~1\g\LOCALS~1\Temp\ccflNc42.ltrans29.ltrans.o
LOAD C:\DOCUME~1\g\LOCALS~1\Temp\ccflNc42.ltrans30.ltrans.o
LOAD C:\DOCUME~1\g\LOCALS~1\Temp\ccflNc42.ltrans31.ltrans.o
LOAD c:/nxp/bstudio_nxp/sdk/tools/ba-elf-ba2-r36379/bin/../lib/gcc/ba-elf/4.7.4/../../../../ba-elf/lib/mcpu_jn51xx_sizeopt\libc.a
LOAD c:/nxp/bstudio_nxp/sdk/tools/ba-elf-ba2-r36379/bin/../lib/gcc/ba-elf/4.7.4/mcpu_jn51xx_sizeopt\libgcc.a
LOAD c:/nxp/bstudio_nxp/sdk/tools/ba-elf-ba2-r36379/bin/../lib/gcc/ba-elf/4.7.4/../../../../ba-elf/lib/mcpu_jn51xx_sizeopt\libc.a
LOAD c:/NXP/bstudio_nxp/workspace/Custom_ZLL_Lights_someone42/MultiLight/Build/os_irq.o
LOAD c:/NXP/bstudio_nxp/workspace/Custom_ZLL_Lights_someone42/MultiLight/Build/os_irq_alignment.o
LOAD c:/NXP/bstudio_nxp/workspace/Custom_ZLL_Lights_someone42/MultiLight/Build/os_irq_buserror.o
LOAD c:/NXP/bstudio_nxp/workspace/Custom_ZLL_Lights_someone42/MultiLight/Build/os_irq_illegalinstruction.o
LOAD c:/NXP/bstudio_nxp/workspace/Custom_ZLL_Lights_someone42/MultiLight/Build/os_irq_stackoverflowexception.o
LOAD c:/NXP/bstudio_nxp/workspace/Custom_ZLL_Lights_someone42/MultiLight/Build/os_irq_unimplementedmodule.o
LOAD c:/NXP/bstudio_nxp/workspace/Custom_ZLL_Lights_someone42/MultiLight/Build/pdum_gen.o
LOAD c:/NXP/bstudio_nxp/workspace/Custom_ZLL_Lights_someone42/MultiLight/Build/pdum_apdu.o
LOAD c:/NXP/bstudio_nxp/workspace/Custom_ZLL_Lights_someone42/MultiLight/Build/zps_gen.o
LOAD c:/NXP/bstudio_nxp/workspace/Custom_ZLL_Lights_someone42/MultiLight/Build/app_timer_driver.o
LOAD c:/NXP/bstudio_nxp/workspace/Custom_ZLL_Lights_someone42/MultiLight/Build/app_start_light.o
LOAD c:/NXP/bstudio_nxp/workspace/Custom_ZLL_Lights_someone42/MultiLight/Build/app_scenes.o
LOAD c:/NXP/bstudio_nxp/workspace/Custom_ZLL_Lights_someone42/MultiLight/Build/zpr_light_node.o
LOAD c:/NXP/bstudio_nxp/workspace/Custom_ZLL_Lights_someone42/MultiLight/Build/ecb_decrypt.o
LOAD c:/NXP/bstudio_nxp/workspace/Custom_ZLL_Lights_someone42/MultiLight/Build/app_zcl_light_task.o
LOAD c:/NXP/bstudio_nxp/workspace/Custom_ZLL_Lights_someone42/MultiLight/Build/app_light_commission_task.o
LOAD c:/NXP/bstudio_nxp/workspace/Custom_ZLL_Lights_someone42/MultiLight/Build/app_light_interpolation.o
LOAD c:/NXP/bstudio_nxp/workspace/Custom_ZLL_Lights_someone42/MultiLight/Build/app_light_calibration.o
LOAD c:/NXP/bstudio_nxp/workspace/Custom_ZLL_Lights_someone42/MultiLight/Build/app_temp_sensor.o
LOAD c:/NXP/bstudio_nxp/workspace/Custom_ZLL_Lights_someone42/MultiLight/Build/appZpsBeaconHandler.o
LOAD c:/NXP/bstudio_nxp/workspace/Custom_ZLL_Lights_someone42/MultiLight/Build/App_MultiLight.o
LOAD c:/NXP/bstudio_nxp/workspace/Custom_ZLL_Lights_someone42/MultiLight/Build/DriverBulb_TimerPWM.o
LOAD c:/NXP/bstudio_nxp/workspace/Custom_ZLL_Lights_someone42/MultiLight/Build/Alarms.o
LOAD c:/NXP/bstudio_nxp/workspace/Custom_ZLL_Lights_someone42/MultiLight/Build/AlarmsClientCommands.o
LOAD c:/NXP/bstudio_nxp/workspace/Custom_ZLL_Lights_someone42/MultiLight/Build/AlarmsCommandHandler.o
LOAD c:/NXP/bstudio_nxp/workspace/Custom_ZLL_Lights_someone42/MultiLight/Build/AlarmsServerCommands.o
LOAD c:/NXP/bstudio_nxp/workspace/Custom_ZLL_Lights_someone42/MultiLight/Build/AlarmsTableManager.o
LOAD c:/NXP/bstudio_nxp/workspace/Custom_ZLL_Lights_someone42/MultiLight/Build/AnalogInputBasic.o
LOAD c:/NXP/bstudio_nxp/workspace/Custom_ZLL_Lights_someone42/MultiLight/Build/AnalogOutputBasic.o
LOAD c:/NXP/bstudio_nxp/workspace/Custom_ZLL_Lights_someone42/MultiLight/Build/Basic.o
LOAD c:/NXP/bstudio_nxp/workspace/Custom_ZLL_Lights_someone42/MultiLight/Build/BasicClientCommands.o
LOAD c:/NXP/bstudio_nxp/workspace/Custom_ZLL_Lights_someone42/MultiLight/Build/BasicCommandHandler.o
LOAD c:/NXP/bstudio_nxp/workspace/Custom_ZLL_Lights_someone42/MultiLight/Build/BinaryInputBasic.o
LOAD c:/NXP/bstudio_nxp/workspace/Custom_ZLL_Lights_someone42/MultiLight/Build/BinaryOutputBasic.o
LOAD c:/NXP/bstudio_nxp/workspace/Custom_ZLL_Lights_someone42/MultiLight/Build/Commissioning.o
LOAD c:/NXP/bstudio_nxp/workspace/Custom_ZLL_Lights_someone42/MultiLight/Build/DeviceTemperatureConfiguration.o
LOAD c:/NXP/bstudio_nxp/workspace/Custom_ZLL_Lights_someone42/MultiLight/Build/Diagnostics.o
LOAD c:/NXP/bstudio_nxp/workspace/Custom_ZLL_Lights_someone42/MultiLight/Build/DoorLock.o
LOAD c:/NXP/bstudio_nxp/workspace/Custom_ZLL_Lights_someone42/MultiLight/Build/DoorLockCommandHandler.o
LOAD c:/NXP/bstudio_nxp/workspace/Custom_ZLL_Lights_someone42/MultiLight/Build/DoorLockCommands.o
LOAD c:/NXP/bstudio_nxp/workspace/Custom_ZLL_Lights_someone42/MultiLight/Build/ElectricalMeasurement.o
LOAD c:/NXP/bstudio_nxp/workspace/Custom_ZLL_Lights_someone42/MultiLight/Build/Groups.o
LOAD c:/NXP/bstudio_nxp/workspace/Custom_ZLL_Lights_someone42/MultiLight/Build/GroupsClientCommands.o
LOAD c:/NXP/bstudio_nxp/workspace/Custom_ZLL_Lights_someone42/MultiLight/Build/GroupsCommandHandler.o
LOAD c:/NXP/bstudio_nxp/workspace/Custom_ZLL_Lights_someone42/MultiLight/Build/GroupsServerCommands.o
LOAD c:/NXP/bstudio_nxp/workspace/Custom_ZLL_Lights_someone42/MultiLight/Build/GroupsTableManager.o
LOAD c:/NXP/bstudio_nxp/workspace/Custom_ZLL_Lights_someone42/MultiLight/Build/Identify.o
LOAD c:/NXP/bstudio_nxp/workspace/Custom_ZLL_Lights_someone42/MultiLight/Build/IdentifyClientCommands.o
LOAD c:/NXP/bstudio_nxp/workspace/Custom_ZLL_Lights_someone42/MultiLight/Build/IdentifyCommandHandler.o
LOAD c:/NXP/bstudio_nxp/workspace/Custom_ZLL_Lights_someone42/MultiLight/Build/IdentifyServerCommands.o
LOAD c:/NXP/bstudio_nxp/workspace/Custom_ZLL_Lights_someone42/MultiLight/Build/LevelControl.o
LOAD c:/NXP/bstudio_nxp/workspace/Custom_ZLL_Lights_someone42/MultiLight/Build/LevelControlClientCommands.o
LOAD c:/NXP/bstudio_nxp/workspace/Custom_ZLL_Lights_someone42/MultiLight/Build/LevelControlCommandHandler.o
LOAD c:/NXP/bstudio_nxp/workspace/Custom_ZLL_Lights_someone42/MultiLight/Build/MultistateInputBasic.o
LOAD c:/NXP/bstudio_nxp/workspace/Custom_ZLL_Lights_someone42/MultiLight/Build/MultistateOutputBasic.o
LOAD c:/NXP/bstudio_nxp/workspace/Custom_ZLL_Lights_someone42/MultiLight/Build/OOSC.o
LOAD c:/NXP/bstudio_nxp/workspace/Custom_ZLL_Lights_someone42/MultiLight/Build/OnOff.o
LOAD c:/NXP/bstudio_nxp/workspace/Custom_ZLL_Lights_someone42/MultiLight/Build/OnOffCommandHandler.o
LOAD c:/NXP/bstudio_nxp/workspace/Custom_ZLL_Lights_someone42/MultiLight/Build/OnOffCommands.o
LOAD c:/NXP/bstudio_nxp/workspace/Custom_ZLL_Lights_someone42/MultiLight/Build/PollControl.o
LOAD c:/NXP/bstudio_nxp/workspace/Custom_ZLL_Lights_someone42/MultiLight/Build/PollControlClientCommands.o
LOAD c:/NXP/bstudio_nxp/workspace/Custom_ZLL_Lights_someone42/MultiLight/Build/PollControlCommandHandler.o
LOAD c:/NXP/bstudio_nxp/workspace/Custom_ZLL_Lights_someone42/MultiLight/Build/PollControlServerCommands.o
LOAD c:/NXP/bstudio_nxp/workspace/Custom_ZLL_Lights_someone42/MultiLight/Build/PowerConfiguration.o
LOAD c:/NXP/bstudio_nxp/workspace/Custom_ZLL_Lights_someone42/MultiLight/Build/Scenes.o
LOAD c:/NXP/bstudio_nxp/workspace/Custom_ZLL_Lights_someone42/MultiLight/Build/ScenesClientCommands.o
LOAD c:/NXP/bstudio_nxp/workspace/Custom_ZLL_Lights_someone42/MultiLight/Build/ScenesClusterManagement.o
LOAD c:/NXP/bstudio_nxp/workspace/Custom_ZLL_Lights_someone42/MultiLight/Build/ScenesCommandHandler.o
LOAD c:/NXP/bstudio_nxp/workspace/Custom_ZLL_Lights_someone42/MultiLight/Build/ScenesServerCommands.o
LOAD c:/NXP/bstudio_nxp/workspace/Custom_ZLL_Lights_someone42/MultiLight/Build/ScenesTableManager.o
LOAD c:/NXP/bstudio_nxp/workspace/Custom_ZLL_Lights_someone42/MultiLight/Build/TC.o
LOAD c:/NXP/bstudio_nxp/workspace/Custom_ZLL_Lights_someone42/MultiLight/Build/Time.o
LOAD c:/NXP/bstudio_nxp/workspace/Custom_ZLL_Lights_someone42/MultiLight/Build/zll_CommissionCmdHandler.o
LOAD c:/NXP/bstudio_nxp/workspace/Custom_ZLL_Lights_someone42/MultiLight/Build/zll_UtilityCmdHandler.o
LOAD c:/NXP/bstudio_nxp/workspace/Custom_ZLL_Lights_someone42/MultiLight/Build/zll_commission.o
LOAD c:/NXP/bstudio_nxp/workspace/Custom_ZLL_Lights_someone42/MultiLight/Build/zll_utility.o
LOAD c:/NXP/bstudio_nxp/workspace/Custom_ZLL_Lights_someone42/MultiLight/Build/colour_light.o
LOAD c:/NXP/bstudio_nxp/workspace/Custom_ZLL_Lights_someone42/MultiLight/Build/colour_remote.o
LOAD c:/NXP/bstudio_nxp/workspace/Custom_ZLL_Lights_someone42/MultiLight/Build/colour_scene_remote.o
LOAD c:/NXP/bstudio_nxp/workspace/Custom_ZLL_Lights_someone42/MultiLight/Build/colour_temperature_light.o
LOAD c:/NXP/bstudio_nxp/workspace/Custom_ZLL_Lights_someone42/MultiLight/Build/commission_endpoint.o
LOAD c:/NXP/bstudio_nxp/workspace/Custom_ZLL_Lights_someone42/MultiLight/Build/control_bridge.o
LOAD c:/NXP/bstudio_nxp/workspace/Custom_ZLL_Lights_someone42/MultiLight/Build/dimmable_light.o
LOAD c:/NXP/bstudio_nxp/workspace/Custom_ZLL_Lights_someone42/MultiLight/Build/dimmable_plug.o
LOAD c:/NXP/bstudio_nxp/workspace/Custom_ZLL_Lights_someone42/MultiLight/Build/extended_colour_light.o
LOAD c:/NXP/bstudio_nxp/workspace/Custom_ZLL_Lights_someone42/MultiLight/Build/non_colour_remote.o
LOAD c:/NXP/bstudio_nxp/workspace/Custom_ZLL_Lights_someone42/MultiLight/Build/non_colour_scene_remote.o
LOAD c:/NXP/bstudio_nxp/workspace/Custom_ZLL_Lights_someone42/MultiLight/Build/on_off_light.o
LOAD c:/NXP/bstudio_nxp/workspace/Custom_ZLL_Lights_someone42/MultiLight/Build/on_off_plug.o
LOAD c:/NXP/bstudio_nxp/workspace/Custom_ZLL_Lights_someone42/MultiLight/Build/on_off_sensor.o
LOAD c:/NXP/bstudio_nxp/workspace/Custom_ZLL_Lights_someone42/MultiLight/Build/zll.o
LOAD c:/NXP/bstudio_nxp/workspace/Custom_ZLL_Lights_someone42/MultiLight/Build/BallastConfiguration.o
LOAD c:/NXP/bstudio_nxp/workspace/Custom_ZLL_Lights_someone42/MultiLight/Build/ColourControl.o
LOAD c:/NXP/bstudio_nxp/workspace/Custom_ZLL_Lights_someone42/MultiLight/Build/ColourControlClientCommands.o
LOAD c:/NXP/bstudio_nxp/workspace/Custom_ZLL_Lights_someone42/MultiLight/Build/ColourControlCommandHandler.o
LOAD c:/NXP/bstudio_nxp/workspace/Custom_ZLL_Lights_someone42/MultiLight/Build/ColourControlConversions.o
LOAD c:/NXP/bstudio_nxp/workspace/Custom_ZLL_Lights_someone42/MultiLight/Build/dlist.o
LOAD c:/NXP/bstudio_nxp/workspace/Custom_ZLL_Lights_someone42/MultiLight/Build/zcl.o
LOAD c:/NXP/bstudio_nxp/workspace/Custom_ZLL_Lights_someone42/MultiLight/Build/zcl_CustomCommandReceive.o
LOAD c:/NXP/bstudio_nxp/workspace/Custom_ZLL_Lights_someone42/MultiLight/Build/zcl_CustomCommandSend.o
LOAD c:/NXP/bstudio_nxp/workspace/Custom_ZLL_Lights_someone42/MultiLight/Build/zcl_PDUbufferReadWrite.o
LOAD c:/NXP/bstudio_nxp/workspace/Custom_ZLL_Lights_someone42/MultiLight/Build/zcl_PDUbufferReadWriteString.o
LOAD c:/NXP/bstudio_nxp/workspace/Custom_ZLL_Lights_someone42/MultiLight/Build/zcl_WriteAttributesRequestHandle.o
LOAD c:/NXP/bstudio_nxp/workspace/Custom_ZLL_Lights_someone42/MultiLight/Build/zcl_WriteAttributesRequestSend.o
LOAD c:/NXP/bstudio_nxp/workspace/Custom_ZLL_Lights_someone42/MultiLight/Build/zcl_WriteAttributesResponseHandle.o
LOAD c:/NXP/bstudio_nxp/workspace/Custom_ZLL_Lights_someone42/MultiLight/Build/zcl_attribute.o
LOAD c:/NXP/bstudio_nxp/workspace/Custom_ZLL_Lights_someone42/MultiLight/Build/zcl_buffer.o
LOAD c:/NXP/bstudio_nxp/workspace/Custom_ZLL_Lights_someone42/MultiLight/Build/zcl_clusterCommand.o
LOAD c:/NXP/bstudio_nxp/workspace/Custom_ZLL_Lights_someone42/MultiLight/Build/zcl_command.o
LOAD c:/NXP/bstudio_nxp/workspace/Custom_ZLL_Lights_someone42/MultiLight/Build/zcl_configureReportingCommandHandle.o
LOAD c:/NXP/bstudio_nxp/workspace/Custom_ZLL_Lights_someone42/MultiLight/Build/zcl_configureReportingCommandSend.o
LOAD c:/NXP/bstudio_nxp/workspace/Custom_ZLL_Lights_someone42/MultiLight/Build/zcl_configureReportingResponseHandle.o
LOAD c:/NXP/bstudio_nxp/workspace/Custom_ZLL_Lights_someone42/MultiLight/Build/zcl_defaultResponse.o
LOAD c:/NXP/bstudio_nxp/workspace/Custom_ZLL_Lights_someone42/MultiLight/Build/zcl_discoverAttributesExtendedRequestHandle.o
LOAD c:/NXP/bstudio_nxp/workspace/Custom_ZLL_Lights_someone42/MultiLight/Build/zcl_discoverAttributesExtendedRequestSend.o
LOAD c:/NXP/bstudio_nxp/workspace/Custom_ZLL_Lights_someone42/MultiLight/Build/zcl_discoverAttributesExtendedResponseHandle.o
LOAD c:/NXP/bstudio_nxp/workspace/Custom_ZLL_Lights_someone42/MultiLight/Build/zcl_discoverAttributesRequestHandle.o
LOAD c:/NXP/bstudio_nxp/workspace/Custom_ZLL_Lights_someone42/MultiLight/Build/zcl_discoverAttributesRequestSend.o
LOAD c:/NXP/bstudio_nxp/workspace/Custom_ZLL_Lights_someone42/MultiLight/Build/zcl_discoverAttributesResponseHandle.o
LOAD c:/NXP/bstudio_nxp/workspace/Custom_ZLL_Lights_someone42/MultiLight/Build/zcl_discoverCommandsRequestHandle.o
LOAD c:/NXP/bstudio_nxp/workspace/Custom_ZLL_Lights_someone42/MultiLight/Build/zcl_discoverCommandsRequestSend.o
LOAD c:/NXP/bstudio_nxp/workspace/Custom_ZLL_Lights_someone42/MultiLight/Build/zcl_discoverCommandsResponseHandle.o
LOAD c:/NXP/bstudio_nxp/workspace/Custom_ZLL_Lights_someone42/MultiLight/Build/zcl_event.o
LOAD c:/NXP/bstudio_nxp/workspace/Custom_ZLL_Lights_someone42/MultiLight/Build/zcl_heap.o
LOAD c:/NXP/bstudio_nxp/workspace/Custom_ZLL_Lights_someone42/MultiLight/Build/zcl_library_options.o
LOAD c:/NXP/bstudio_nxp/workspace/Custom_ZLL_Lights_someone42/MultiLight/Build/zcl_readAttributesRequestHandle.o
LOAD c:/NXP/bstudio_nxp/workspace/Custom_ZLL_Lights_someone42/MultiLight/Build/zcl_readAttributesRequestSend.o
LOAD c:/NXP/bstudio_nxp/workspace/Custom_ZLL_Lights_someone42/MultiLight/Build/zcl_readAttributesResponseHandle.o
LOAD c:/NXP/bstudio_nxp/workspace/Custom_ZLL_Lights_someone42/MultiLight/Build/zcl_readReportingConfigurationCommandHandle.o
LOAD c:/NXP/bstudio_nxp/workspace/Custom_ZLL_Lights_someone42/MultiLight/Build/zcl_readReportingConfigurationCommandSend.o
LOAD c:/NXP/bstudio_nxp/workspace/Custom_ZLL_Lights_someone42/MultiLight/Build/zcl_readReportingConfigurationResponseHandle.o
LOAD c:/NXP/bstudio_nxp/workspace/Custom_ZLL_Lights_someone42/MultiLight/Build/zcl_reportManager.o
LOAD c:/NXP/bstudio_nxp/workspace/Custom_ZLL_Lights_someone42/MultiLight/Build/zcl_reportMaths.o
LOAD c:/NXP/bstudio_nxp/workspace/Custom_ZLL_Lights_someone42/MultiLight/Build/zcl_reportScheduler.o
LOAD c:/NXP/bstudio_nxp/workspace/Custom_ZLL_Lights_someone42/MultiLight/Build/zcl_reportStringHandling.o
LOAD c:/NXP/bstudio_nxp/workspace/Custom_ZLL_Lights_someone42/MultiLight/Build/zcl_reportStructure.o
LOAD c:/NXP/bstudio_nxp/workspace/Custom_ZLL_Lights_someone42/MultiLight/Build/zcl_search.o
LOAD c:/NXP/bstudio_nxp/workspace/Custom_ZLL_Lights_someone42/MultiLight/Build/zcl_timer.o
LOAD c:/NXP/bstudio_nxp/workspace/Custom_ZLL_Lights_someone42/MultiLight/Build/zcl_transmit.o
LOAD c:/NXP/bstudio_nxp/sdk/JN-SW-4168/Components/Library\libZPSMAC_Mini_JN516x.a
LOAD c:/NXP/bstudio_nxp/sdk/JN-SW-4168/Components/Library\libOS_JN516x.a
LOAD c:/NXP/bstudio_nxp/sdk/JN-SW-4168/Components/Library\libPWRM_JN516x.a
LOAD c:/NXP/bstudio_nxp/sdk/JN-SW-4168/Components/Library\libZPSTSV_JN516x.a
LOAD c:/NXP/bstudio_nxp/sdk/JN-SW-4168/Components/Library\libAES_SW_JN516x.a
LOAD c:/NXP/bstudio_nxp/sdk/JN-SW-4168/Components/Library\libPDUM_JN516x.a
LOAD c:/NXP/bstudio_nxp/sdk/JN-SW-4168/Components/Library\libZPSAPL_JN516x.a
LOAD c:/NXP/bstudio_nxp/sdk/JN-SW-4168/Components/Library\libRandom_JN516x.a
LOAD c:/NXP/bstudio_nxp/sdk/JN-SW-4168/Components/Library\libPDM_EEPROM_JN516x.a
LOAD c:/NXP/bstudio_nxp/sdk/JN-SW-4168/Components/Library\libDBG_JN516x.a
LOAD c:/NXP/bstudio_nxp/sdk/JN-SW-4168/Components/Library\libZPSZLL_JN516x.a
LOAD c:/NXP/bstudio_nxp/sdk/JN-SW-4168/Components/Library\libZPSNWK_JN516x.a
LOAD c:/NXP/bstudio_nxp/sdk/JN-SW-4168/Components/Library\libRecal_JN516x.a
LOAD c:/NXP/bstudio_nxp/sdk/JN-SW-4168/Components/Library\libMiniMac_JN5169.a
LOAD c:/NXP/bstudio_nxp/sdk/JN-SW-4168/Components/Library\libMiniMacShim_JN516x.a
LOAD c:/NXP/bstudio_nxp/sdk/JN-SW-4168/Components/Library\libMMAC_JN5169.a
LOAD c:/NXP/bstudio_nxp/sdk/JN-SW-4168/Components/Library\libJPT_JN5169.a
LOAD c:/NXP/bstudio_nxp/sdk/JN-SW-4168/Components/Library\libAes_JN516x.a
LOAD c:/NXP/bstudio_nxp/sdk/JN-SW-4168/Components/Library\libHardwareApi_JN5169.a
LOAD c:/NXP/bstudio_nxp/sdk/JN-SW-4168/Components/Library\libMicroSpecific_JN516x.a
LOAD c:/NXP/bstudio_nxp/sdk/JN-SW-4168/Components/Library\libBoot_JN516x.a
LOAD c:/nxp/bstudio_nxp/sdk/tools/ba-elf-ba2-r36379/bin/../lib/gcc/ba-elf/4.7.4/../../../../ba-elf/lib/mcpu_jn51xx_sizeopt\libm.a
END GROUP
LOAD c:/nxp/bstudio_nxp/sdk/tools/ba-elf-ba2-r36379/bin/../lib/gcc/ba-elf/4.7.4/../../../../ba-elf/lib/mcpu_jn51xx_sizeopt\libc.a
LOAD c:/nxp/bstudio_nxp/sdk/tools/ba-elf-ba2-r36379/bin/../lib/gcc/ba-elf/4.7.4/mcpu_jn51xx_sizeopt\libgcc.a
LOAD c:/nxp/bstudio_nxp/sdk/tools/ba-elf-ba2-r36379/bin/../lib/gcc/ba-elf/4.7.4/../../../../ba-elf/lib/mcpu_jn51xx_sizeopt\libc.a
                0x0000000000080038                exception_vsr_table = 0x80038
                0x0000000004000000                pSPIflashFncTable = 0x4000000
                0x0000000000000044                restore_state = 0x44
                0x000000000000004a                bZSPIWaitWIPClear = 0x4a
                0x0000000000000050                u16ZSPIflashRDID = 0x50
                0x0000000000000056                u8SelectFlashChipType = 0x56
                0x000000000000005c                memcpy = 0x5c
                0x0000000000000066                vBootFlashProg = 0x66
                [0x00000000000003e8]                __minimum_heap_size = DEFINED (__minimum_heap_size)?__minimum_heap_size:0xd16
                [0x0000000000000fa0]                __stack_size = DEFINED (__stack_size)?__stack_size:0x800
                0x0000000000000000                _SwConfig = (DEFINED (g_bSWConf_Debug) | (DEFINED (g_bSWConf_AltDebugPort) << 0x1))

.version        0x000000000007fffc        0x4
                0x000000000007fffc        0x4 LONG 0xf03000b

.bir            0x0000000000080000       0x10
                0x0000000000080000                _flash_start = ABSOLUTE (.)
                0x0000000000080000                _flash_beg = ABSOLUTE (.)
                0x0000000000080000        0x4 LONG 0x12345678
                0x0000000000080004        0x4 LONG 0x11223344
                0x0000000000080008        0x4 LONG 0x55667788
                0x000000000008000c        0x1 BYTE 0x8
                0x000000000008000d        0x1 BYTE 0x1
                0x000000000008000e        0x2 SHORT 0x0

.flashheader    0x0000000000080010       0x28
                0x0000000000080010        0x4 LONG 0x0
                0x0000000000080014        0x4 LONG 0x0
                0x0000000000080018        0x4 LONG 0x0
                0x000000000008001c        0x2 SHORT 0x0
                0x000000000008001e        0x2 SHORT 0x0 ABSOLUTE (_SwConfig)
                0x0000000000080020                _enc_start = ABSOLUTE (.)
                0x0000000000080020        0x4 LONG 0x2e60c ABSOLUTE (_image_len)
                0x0000000000080024        0x4 LONG 0xadc88 ABSOLUTE (_flash_data_start)
                0x0000000000080028        0x2 SHORT 0x13 ((ABSOLUTE (_ram_data_start) / 0x4) & 0xffff)
                0x000000000008002a        0x2 SHORT 0x261 ((ABSOLUTE (_ram_data_len) / 0x4) & 0xffff)
                0x000000000008002c        0x2 SHORT 0x274 ((ABSOLUTE (_bss_start) / 0x4) & 0xffff)
                0x000000000008002e        0x2 SHORT 0x118d ((ABSOLUTE (_bss_len) / 0x4) & 0xffff)
                0x0000000000080030        0x4 LONG 0xa9488 ABSOLUTE (AppWarmStart)
                0x0000000000080034        0x4 LONG 0xa94a4 ABSOLUTE (AppColdStart)
                0x0000000000000000                _enc_offset = (_enc_start & 0xf)

.ro_mac_address
                0x0000000000080040        0x0
                0x0000000000080040                _FlsMACAddress = ABSOLUTE (.)
 *(.ro_mac_address)
                0x0000000000080040                . = ALIGN (0x10)

.ro_ota_header  0x0000000000080040        0x0
                0x0000000000080040                _FlsOtaHeader = ABSOLUTE (.)
 *(.ro_ota_header)
                0x0000000000080040                . = ALIGN (0x10)

.ro_se_lnkKey   0x0000000000080040        0x0
                0x0000000000080040                _FlsLinkKey = ABSOLUTE (.)
 *(.ro_se_lnkKey)
                0x0000000000080040                . = ALIGN (0x10)

.rodata         0x0000000000080038     0x5405
 *(.rodata*)
 .rodata.str1.1
                0x0000000000080038      0x12c C:\DOCUME~1\g\LOCALS~1\Temp\ccflNc42.ltrans0.ltrans.o
 .rodata        0x0000000000080164      0x168 C:\DOCUME~1\g\LOCALS~1\Temp\ccflNc42.ltrans0.ltrans.o
                0x0000000000080164                gMAC_u8MaxBuffers
                0x0000000000080168                g_u32ApsFcSaveCountBitShift
                0x000000000008016c                u8MaxZpsConfigEp
                0x000000000008016d                au8EpMapPresent
                0x0000000000080174                s_groupPdmTable
 .rodata        0x00000000000802cc       0xbc C:\DOCUME~1\g\LOCALS~1\Temp\ccflNc42.ltrans1.ltrans.o
 .rodata.str1.1
                0x0000000000000000      0x12c C:\DOCUME~1\g\LOCALS~1\Temp\ccflNc42.ltrans1.ltrans.o
                                          0x8 (size before relaxing)
 .rodata.str1.1
                0x0000000000080388        0xd C:\DOCUME~1\g\LOCALS~1\Temp\ccflNc42.ltrans2.ltrans.o
 .rodata.str1.1
                0x0000000000000000        0xd C:\DOCUME~1\g\LOCALS~1\Temp\ccflNc42.ltrans3.ltrans.o
                                          0x3 (size before relaxing)
 .rodata.str1.1
                0x0000000000080395      0x28c C:\DOCUME~1\g\LOCALS~1\Temp\ccflNc42.ltrans4.ltrans.o
 .rodata        0x0000000000080621        0x8 C:\DOCUME~1\g\LOCALS~1\Temp\ccflNc42.ltrans4.ltrans.o
 .rodata.str1.1
                0x0000000000080629      0x10e C:\DOCUME~1\g\LOCALS~1\Temp\ccflNc42.ltrans5.ltrans.o
                                        0x15b (size before relaxing)
 .rodata.str1.1
                0x0000000000000000      0x10e C:\DOCUME~1\g\LOCALS~1\Temp\ccflNc42.ltrans6.ltrans.o
                                          0x7 (size before relaxing)
 .rodata        0x0000000000080737        0x6 C:\DOCUME~1\g\LOCALS~1\Temp\ccflNc42.ltrans6.ltrans.o
 .rodata.str1.1
                0x0000000000000000      0x10e C:\DOCUME~1\g\LOCALS~1\Temp\ccflNc42.ltrans7.ltrans.o
                                          0xf (size before relaxing)
 *fill*         0x000000000008073d        0x3 00
 .rodata        0x0000000000080740       0x20 C:\DOCUME~1\g\LOCALS~1\Temp\ccflNc42.ltrans7.ltrans.o
                0x0000000000080740                g_bSendBuffered
                0x0000000000080744                zps_pacNwkFrmStdHdrFmt
                0x0000000000080748                au32NwkPdmRecordOffsets
 .rodata.str1.1
                0x0000000000080760        0xc C:\DOCUME~1\g\LOCALS~1\Temp\ccflNc42.ltrans8.ltrans.o
 .rodata.str1.1
                0x000000000008076c       0x5a C:\DOCUME~1\g\LOCALS~1\Temp\ccflNc42.ltrans9.ltrans.o
 .rodata.str1.1
                0x00000000000807c6      0x45f C:\DOCUME~1\g\LOCALS~1\Temp\ccflNc42.ltrans10.ltrans.o
                                        0x46a (size before relaxing)
 .rodata.str1.1
                0x0000000000080c25      0x3aa C:\DOCUME~1\g\LOCALS~1\Temp\ccflNc42.ltrans11.ltrans.o
                                        0x3d1 (size before relaxing)
 .rodata        0x0000000000080fcf      0x107 C:\DOCUME~1\g\LOCALS~1\Temp\ccflNc42.ltrans11.ltrans.o
                0x0000000000080fcf                au8ZLLChannelSet
 .rodata.str1.1
                0x00000000000810d6        0x5 C:\DOCUME~1\g\LOCALS~1\Temp\ccflNc42.ltrans12.ltrans.o
                                         0x17 (size before relaxing)
 .rodata.str1.1
                0x00000000000810db       0x11 C:\DOCUME~1\g\LOCALS~1\Temp\ccflNc42.ltrans13.ltrans.o
                                         0x18 (size before relaxing)
 .rodata.str1.1
                0x00000000000810ec      0x3e2 C:\DOCUME~1\g\LOCALS~1\Temp\ccflNc42.ltrans14.ltrans.o
                                        0x462 (size before relaxing)
 .rodata.str1.1
                0x00000000000814ce        0xf C:\DOCUME~1\g\LOCALS~1\Temp\ccflNc42.ltrans15.ltrans.o
 *fill*         0x00000000000814dd        0x3 00
 .rodata        0x00000000000814e0      0x1fc C:\DOCUME~1\g\LOCALS~1\Temp\ccflNc42.ltrans15.ltrans.o
                0x00000000000814e0                s_apsStSceTbl.129771
                0x00000000000814f4                s_aprIdleStHandleCme.139752
                0x0000000000081508                s_aprActvStHandleCme.135884
                0x0000000000081560                zps_sJoinSceTbl
                0x000000000008156c                zps_sActvSceTbl
 .rodata.str1.1
                0x00000000000816dc       0x2a C:\DOCUME~1\g\LOCALS~1\Temp\ccflNc42.ltrans16.ltrans.o
                                         0x4f (size before relaxing)
 .rodata.str1.1
                0x0000000000081706      0x669 C:\DOCUME~1\g\LOCALS~1\Temp\ccflNc42.ltrans17.ltrans.o
                                        0x692 (size before relaxing)
 .rodata.str1.1
                0x0000000000081d6f       0x5b C:\DOCUME~1\g\LOCALS~1\Temp\ccflNc42.ltrans18.ltrans.o
                                         0x7a (size before relaxing)
 .rodata.str1.1
                0x0000000000000000       0x5b C:\DOCUME~1\g\LOCALS~1\Temp\ccflNc42.ltrans19.ltrans.o
                                          0x6 (size before relaxing)
 *fill*         0x0000000000081dca        0x2 00
 .rodata        0x0000000000081dcc       0x4c C:\DOCUME~1\g\LOCALS~1\Temp\ccflNc42.ltrans19.ltrans.o
                0x0000000000081dcc                g_u32NwkFcSaveCountBitShift
 .rodata        0x0000000000081e18      0x444 C:\DOCUME~1\g\LOCALS~1\Temp\ccflNc42.ltrans20.ltrans.o
                0x0000000000082018                gu32ZCLVersion
                0x000000000008201c                OS_g_u32Version
                0x0000000000082020                PDUM_g_u32Version
                0x0000000000082024                ZPS_g_u32MacVersion
                0x0000000000082028                ZPS_g_u32TsvVersion
 .rodata.str1.1
                0x0000000000000000        0x4 C:\DOCUME~1\g\LOCALS~1\Temp\ccflNc42.ltrans21.ltrans.o
 .rodata.str1.1
                0x000000000008225c        0x6 C:\DOCUME~1\g\LOCALS~1\Temp\ccflNc42.ltrans22.ltrans.o
 .rodata.str1.1
                0x0000000000082262       0xe1 C:\DOCUME~1\g\LOCALS~1\Temp\ccflNc42.ltrans23.ltrans.o
                                         0xe5 (size before relaxing)
 .rodata        0x0000000000082343       0x10 C:\DOCUME~1\g\LOCALS~1\Temp\ccflNc42.ltrans23.ltrans.o
 .rodata.str1.1
                0x0000000000082353       0x6e C:\DOCUME~1\g\LOCALS~1\Temp\ccflNc42.ltrans24.ltrans.o
 .rodata.str1.1
                0x00000000000823c1      0x172 C:\DOCUME~1\g\LOCALS~1\Temp\ccflNc42.ltrans25.ltrans.o
                                        0x178 (size before relaxing)
 .rodata.str1.1
                0x0000000000082533        0x3 C:\DOCUME~1\g\LOCALS~1\Temp\ccflNc42.ltrans26.ltrans.o
 *fill*         0x0000000000082536        0x2 00
 .rodata        0x0000000000082538     0x2214 C:\DOCUME~1\g\LOCALS~1\Temp\ccflNc42.ltrans26.ltrans.o
 .rodata.str1.1
                0x000000000008474c      0x3c9 C:\DOCUME~1\g\LOCALS~1\Temp\ccflNc42.ltrans27.ltrans.o
                                        0x3d4 (size before relaxing)
 .rodata.str1.1
                0x0000000000084b15       0x27 C:\DOCUME~1\g\LOCALS~1\Temp\ccflNc42.ltrans28.ltrans.o
                                         0x4a (size before relaxing)
 .rodata.str1.1
                0x0000000000084b3c      0x17f C:\DOCUME~1\g\LOCALS~1\Temp\ccflNc42.ltrans29.ltrans.o
 .rodata.str1.1
                0x0000000000084cbb      0x114 C:\DOCUME~1\g\LOCALS~1\Temp\ccflNc42.ltrans30.ltrans.o
                                        0x12a (size before relaxing)
 *fill*         0x0000000000084dcf        0x1 00
 .rodata        0x0000000000084dd0      0x550 C:\DOCUME~1\g\LOCALS~1\Temp\ccflNc42.ltrans30.ltrans.o
                0x0000000000084dd0                zps_g_pvApl
                0x0000000000084dd4                au32UartAddrOffset
                0x0000000000084ddc                au32TimerBaseAddress
                0x0000000000084df0                au8ChannelMap.7228
                0x0000000000084df6                au8Timers.8767
                0x0000000000084dfc                pwrm_psWakeupCallbacks
 .rodata.str1.1
                0x0000000000085320      0x11d C:\DOCUME~1\g\LOCALS~1\Temp\ccflNc42.ltrans31.ltrans.o
                                        0x157 (size before relaxing)

.text           0x0000000000085440    0x28848
 *(.text*)
 .text          0x0000000000085440     0x2114 C:\DOCUME~1\g\LOCALS~1\Temp\ccflNc42.ltrans0.ltrans.o
                0x0000000000085440                vInitialiseApp.3259
                0x0000000000085440                APP_TIMER_Version_1v0
 .text          0x0000000000087554     0x19ec C:\DOCUME~1\g\LOCALS~1\Temp\ccflNc42.ltrans1.ltrans.o
                0x0000000000087554                vZdoServersInit.2959
                0x00000000000875f0                vMMAC_IntHandlerBbc
                0x000000000008760a                eBasicTxCompleteHandler
                0x000000000008760f                vTxRxTimeout.145898
                0x000000000008766c                eSmeAcScBeaconInd.137847
                0x00000000000876c8                eSmeASFlBeaconInd.137682
                0x00000000000876ea                eSmeUDNTScanDcfm.137132
                0x0000000000087772                zps_eNwkHandleSmePollDcfm
                0x000000000008779c                eLeaveDataDcfmRemoteLeave.142429
                0x00000000000877e5                eSmeGenlScanDcfm.137674
                0x0000000000087843                eSmeEdScScanDcfm.137670
                0x00000000000879ea                eSmeAcScBeaconInd.137690
                0x0000000000087af2                eSmeUDNTBeaconInd.137666
                0x0000000000087b15                ZPS_eTsvOpen
                0x0000000000087b2f                zps_vNwkBttMgrInit
                0x0000000000087b5d                vMiniMac_MLME_SetReq_PanId
                0x0000000000087b9a                vMiniMac_MLME_SetReq_ShortAddr
                0x0000000000087ba8                vAHI_AdcStartAccumulateSamples.constprop.158
                0x0000000000087c04                vZCL_InitializeClusterInstance.constprop.141
                0x0000000000087c15                psDLISTsearchFromHead
                0x0000000000087c3e                pvZCL_HeapAlloc.part.0.52499.constprop.123
                0x0000000000087c78                vMicroIntEnableOnly.constprop.108
                0x0000000000087ca4                vAHI_TimerEnable.part.1.148537.constprop.70
                0x0000000000087d0e                zps_eNwkRtDiscMatch.constprop.57
                0x0000000000087d61                eCLD_ColourControl_xyY2HSV.constprop.41
                0x0000000000087f27                vMiniMac_ReturnTxBufferCallback
                0x0000000000087f39                vEnableReceive.145902
                0x0000000000087f73                pvHeap_Alloc
                0x0000000000087f76                vMicroIntRestoreState
                0x0000000000087f82                vSetChannelAndPower
                0x0000000000088122                vMiniMac_PLME_SetReq_Power
                0x0000000000088136                vMiniMac_PLME_SetReq_Channel
                0x000000000008813e                TSV_eStart
                0x000000000008818e                bAHI_WriteEEPROMfixSegmentData
                0x00000000000881ec                bAHI_InitialiseEEPROM
                0x0000000000088234                vAHI_ReadDataFromEEPROMregister
                0x0000000000088261                vAHI_WriteDataIntoEEPROMregister
                0x0000000000088291                iAHI_WriteDataIntoEEPROMsegment.constprop.114
                0x00000000000882df                iPDM_WriteSegmentHeaderDataIntoEEPROMsegment
                0x000000000008830e                u8AHI_WakeTimerFiredStatus
                0x0000000000088322                vAHI_WakeTimerStop.part.3.149002
                0x0000000000088342                vAHI_UartReset.part.4.148756
                0x000000000008837a                vAHI_UartSetBaudDivisor.part.1.148736
                0x00000000000883b9                vAHI_OptimiseWaitStates
                0x0000000000088405                bAHI_GetClkSource
                0x0000000000088412                bAHI_SetClockRate.part.0.148426.constprop.78
                0x000000000008848d                vAHI_SwReset
                0x00000000000884be                vUnclaimedInterrupt.3261
                0x00000000000884c0                bIssueACIcommand
                0x0000000000088556                vACI_CmdWaitBusy
                0x0000000000088563                bACI_ECBencodeBuffer.part.0.148087.constprop.55
                0x000000000008861a                vACI_OptimisedCcmStar.constprop.60
                0x0000000000088806                vRadioToOff
                0x0000000000088823                vStartReceive
                0x000000000008883f                MAC_u64GetExtAddr
                0x000000000008885a                ZPS_u64NwkNibFindExtAddr
                0x0000000000088905                ZPS_u16NwkNibFindNwkAddr
                0x00000000000889ab                psSearchForFrameToSend
                0x0000000000088a03                eMiniMac_FrameInProgress
                0x0000000000088a2e                vRemoveFromTxQueue
                0x0000000000088a6a                vAddToTxQueue
                0x0000000000088aa0                u8GetHeaderSize
                0x0000000000088ac8                vMiniMac_PLME_SetReq_CcaMode
                0x0000000000088adc                vMiniMac_MLME_SetReq_MaxCsmaBackoffs
                0x0000000000088afc                vMiniMac_MLME_SetReq_MaxBe
                0x0000000000088b1f                vMiniMac_MLME_SetReq_MinBe
                0x0000000000088b42                zps_vSendJoinInd
                0x0000000000088bb3                zps_psFormatCmdFrameGeneral
                0x0000000000088c3f                zps_eNwkFormStInit
                0x0000000000088c54                vSendDcfm.138368
                0x0000000000088c79                bCheckMatchingEntry.137842
                0x0000000000088c9f                zps_psNwkSlistRemoveFromHead
                0x0000000000088cb6                zps_psNwkSlistRemove
                0x0000000000088cee                zps_bNwkMcpsMgrRemoveDescrFromLists
                0x0000000000088d2c                zps_vNwkSlistAddToTail
                0x0000000000088d46                zps_vNwkSecClearMatSet
                0x0000000000088d71                ZPS_vNwkSecResetDevice
                0x0000000000088db6                ZPS_bNwkSecHaveNetworkKey
                0x0000000000088dea                ZPS_bNwkSecFindMatSet
                0x0000000000088e26                zps_eNwkRtMatch
 .text.unlikely
                0x0000000000088f40       0x43 C:\DOCUME~1\g\LOCALS~1\Temp\ccflNc42.ltrans1.ltrans.o
                0x0000000000088f40                vAHI_MemoryHold.148434
 .text          0x0000000000088f83     0x1502 C:\DOCUME~1\g\LOCALS~1\Temp\ccflNc42.ltrans2.ltrans.o
                0x0000000000088f83                DBG_vUartFlush
                0x0000000000088fb0                DBG_vUartPutch
                0x0000000000088ff6                os_u32APP_cbGetTickTimer
                0x0000000000088fff                os_bAPP_cbSetTickTimerCompare
                0x00000000000890fe                boIdValueSearchMatch.122329
                0x0000000000089158                vStartTransmit.145953
                0x00000000000892ad                vDispatch.60869
                0x000000000008937f                OS_eStartSWTimer.constprop.124
                0x000000000008949e                OS_eStopSWTimer.constprop.33
                0x00000000000895ef                OS_ePostMessage
                0x0000000000089755                os_vAPP_CommissionTimerTask
                0x000000000008976b                OS_eActivateTask
                0x0000000000089806                vPostMlmeDcfmInd.80004
                0x00000000000898a9                vLC_WriteStringToUART.7163
                0x00000000000898df                vLC_WriteUnsignedIntegerToUART.7168
                0x0000000000089951                vLC_WriteChannelStatusToUART.part.1.7171
                0x0000000000089970                PWRM_vWakeInterruptCallback
                0x00000000000899f7                u16ZCL_APduInstanceReadStringNBO
                0x0000000000089acc                eZCL_GetAttributeTypeSizeFromBuffer
                0x0000000000089b43                u16ZCL_APduInstanceWriteNBO
                0x0000000000089b97                u16ZCL_WriteCommandHeader
                0x0000000000089c0f                u16ZCL_APduInstanceWriteStringNBO
                0x0000000000089cd6                u16ZCL_ReadTypeNBO
                0x0000000000089d8b                u16ZCL_APduInstanceReadNBO
                0x0000000000089ddc                u16ZCL_ReadCommandHeader.part.0.45138
                0x0000000000089e53                eCLD_BasicCommandHandler
                0x0000000000089e7f                iPDM_ReadSegmentHeaderDataFromEEPROMsegment
                0x0000000000089ed8                iPDM_ReadUserDataFromEEPROMsegment
                0x0000000000089f52                iPDM_ReCalculateWearCountAndChecksumAndWriteFileSystemHeader
                0x0000000000089f9c                vPDM_SetEEPROMandFileSystemValidState
                0x0000000000089fc3                iPDM_ReadUserDataFromFileSystemRecord
                0x0000000000089fe3                vPDM_WriteFileSystemRecordAndSegmentDataIntoEEPROMsegment
                0x000000000008a01e                eCLD_GroupsCreateGroups.constprop.138
                0x000000000008a13f                ZPS_vNwkNibClearTables
                0x000000000008a264                eCLD_ScenesSetLastConfiguredBy.isra.2.22932
                0x000000000008a29b                eCLD_IdentifyRegisterTimeServer.part.0.15970
                0x000000000008a2e9                eCLD_ScenesFindActiveScene
                0x000000000008a31e                iPDM_FilterDuplicateAppendedSegmentsOnList.123582
                0x000000000008a362                ZPS_bIsMacAddressUsedInApsTable
                0x000000000008a418                eCLD_GroupsCheckGroupExists
 .text          0x000000000008a485     0x183e C:\DOCUME~1\g\LOCALS~1\Temp\ccflNc42.ltrans3.ltrans.o
                0x000000000008a485                vPermitJoinHandleExpiry.132683
                0x000000000008a48e                vNwkMcpsTimerCallback
                0x000000000008a4a8                zps_eSceGenlIllegal
                0x000000000008a4af                zps_eSmeGenlIllegal
                0x000000000008a4b6                DBG_vUartFailedAssert
                0x000000000008a4ba                zps_bAplZdoBindRequestServer
                0x000000000008a5f5                psGetVsMcpsBuf.80008
                0x000000000008a5fe                psGetMlmeBuf.80001
                0x000000000008a645                psGetNlmeBuf.64100
                0x000000000008a64f                psGetNldeBuf.64121
                0x000000000008a659                psGetApsmeBuf.64107
                0x000000000008a662                psGetApsdeBuf.64114
                0x000000000008a77b                vLoopbackTimerCallback
                0x000000000008a7aa                zps_eNwkRctMatchNwkAddr
                0x000000000008a814                ZPS_u8NwkCalcNldeReqOverhead
                0x000000000008a84f                zps_vRemoveNextHop
                0x000000000008a904                zps_vRemoveRoute
                0x000000000008a99b                zps_psNwkRtMatchNwkAddr
                0x000000000008aa11                zps_vNwkFreeMcpsHandle
                0x000000000008aa3b                zps_psNwkMcpsMgrFindPendingByNwkDstAddr
                0x000000000008aa51                ZPS_u64NwkNibGetMappedIeeeAddr
                0x000000000008aa73                ZPS_bNwkNibNtActvMatch
                0x000000000008ab2b                bCheckNwkAddr
                0x000000000008ab79                ZPS_vSetExtendedStatus
                0x000000000008ab8b                zps_psApsApsAllocateDcfmRecord
                0x000000000008abf9                zps_u8CalcLinkCost
                0x000000000008ac35                ZPS_u8NwkNibNtDiscMatch
                0x000000000008ad19                zps_u64NwkLibFromPayload
                0x000000000008ad58                zps_vNwkLibU64ToPayload
                0x000000000008ad85                zps_vInitBeaconPayload
                0x000000000008ae01                zps_eNwkDcfmIndPost
                0x000000000008ae24                zps_psNwkDcfmIndGetBuf
                0x000000000008ae46                eRouteRequestDataDcfm.133855
                0x000000000008ae9a                eNldeDataDcfm.131690
                0x000000000008aeca                zps_vSendNwkStatusInd
                0x000000000008aefa                DBG_vInit
                0x000000000008af3c                vPDM_ReadBitmapHeader.123186
                0x000000000008af5b                psSLISTsearch
                0x000000000008af9b                psSLISTremove
                0x000000000008b019                vSLISTaddToTail
                0x000000000008b038                psSLISTgetNext
                0x000000000008b05c                u8PDM_CalculateLargestDataRecordStored
                0x000000000008b08d                bPDM_ImageBitmapRepairCheck
                0x000000000008b0b5                u8PDM_ReadSequenceNumber
                0x000000000008b0d8                boSegmentNumberDeleteSearchMatch.122756
                0x000000000008b0f3                u8PDM_ReadSegmentDataSize
                0x000000000008b107                u32PDM_ReadFileSystemHeaderWearCount
                0x000000000008b11d                boSearchForWearCountSubstitute.123072
                0x000000000008b143                boSearchForWearCountInsertPoint.122325
                0x000000000008b161                vPDM_WriteFileSystemHeaderWearCount
                0x000000000008b173                RND_u32GetRand256
                0x000000000008b190                RND_u32GetRand
                0x000000000008b1b7                u16CalculateFailedTxCount.98032
                0x000000000008b1e1                vZdoIeeeAddrServerSendExtendResponse.part.0.83829
                0x000000000008b242                vZdoNwkAddrServerSendExtendResponse.part.0.82649
                0x000000000008b2a3                zps_bAplZdoServerHandleConfirmAcks
                0x000000000008b2ed                zps_bPerformLeaveActionDecider
                0x000000000008b2f2                vHandleUpdateDeviceIndication.73166
                0x000000000008b31c                bDuplicateCheck.69533
                0x000000000008b429                eHandleRemoveNonBroadcastEndpointsFromGroup.68161
                0x000000000008b4a1                eHandleAddEntryToGroupTable.68124
                0x000000000008b4fd                zps_vAplApsFillAndPostApsAck
                0x000000000008b567                zps_u8AplApsFreeMsgHandle
                0x000000000008b5d1                vFillDataIndStruct.63967
                0x000000000008b62f                vFillApduErrorEvent.63960
                0x000000000008b672                bCheckProfile.63955
                0x000000000008b6b9                ZPS_bIsGroupPresent
                0x000000000008b6f1                pdum_u16ReadNBO
                0x000000000008b852                PDUM_u16SizeNBO
                0x000000000008b8b0                PDUM_u16APduInstanceWriteStrNBO
                0x000000000008ba2f                PDUM_eNPduReadHeaderNBO
                0x000000000008ba82                PDUM_u16APduInstanceReadNBO
                0x000000000008bacd                PDUM_eNPduPrependHeaderNBO
                0x000000000008bb28                zps_vInitAPSMECmdHdr
                0x000000000008bb5f                PDUM_eNPduAppendDataNBO
                0x000000000008bbbc                PDUM_u16APduInstanceWriteNBO
                0x000000000008bc26                PDUM_thAPduInstanceGetApdu
                0x000000000008bc41                PDUM_eAPduInstanceSetPayloadSize
                0x000000000008bc69                PDUM_eNPduWriteDataFromBuffer
 .text.unlikely
                0x000000000008bcc3       0xd0 C:\DOCUME~1\g\LOCALS~1\Temp\ccflNc42.ltrans3.ltrans.o
                0x000000000008bcc3                bIsBindTableMatch.68101
                0x000000000008bd14                eRemoveEntryInBindingTable.68129
 *fill*         0x000000000008bd93        0x1 00
 .text          0x000000000008bd94     0x1664 C:\DOCUME~1\g\LOCALS~1\Temp\ccflNc42.ltrans4.ltrans.o
                0x000000000008bdca                os_vAPP_cbDisableTickTimer
                0x000000000008be0e                vRetryCcaFailure
                0x000000000008be62                eCLD_ScenesCountScenes
                0x000000000008be7c                dbg_vPrintfImplNoneVerbose
                0x000000000008c420                bCLD_ScenesSearchForScene.23543
                0x000000000008c46d                eCLD_ScenesAddScene
                0x000000000008c579                eCLD_ScenesFindScene
                0x000000000008c5de                eCLD_ScenesStoreScene
                0x000000000008c6c8                DBG_vDumpStack
                0x000000000008c70a                DriverBulb_vSetOnOff
                0x000000000008c72d                eZCL_SearchForClusterEntry
                0x000000000008c7cb                eZCL_FindCluster.constprop.64
                0x000000000008c818                eCLD_ScenesUpdate
                0x000000000008cbb4                eCLD_ScenesRemoveAllScenes
                0x000000000008cc6f                eCLD_ColourControl_GetRGB
                0x000000000008cd47                eCLD_OnOffGetState
                0x000000000008cd76                eCLD_LevelControlClusterIsPresent
                0x000000000008cd8d                eCLD_GroupsSetIdentifying
                0x000000000008cdb0                eCLD_ColourControl_HSV2xyY.constprop.40
                0x000000000008d093                eCLD_ColourControlHandleColourModeChange
                0x000000000008d144                eZCL_CustomCommandReceiveScenes.isra.0.part.1.22916.constprop.16
                0x000000000008d238                eZCL_BuildTransmitAddressStructure
                0x000000000008d2a5                vLI_Start.constprop.46
                0x000000000008d307                vRGBLight_SetLevels
                0x000000000008d3c7                vSetBulbState
 .text          0x000000000008d3f8     0x1224 C:\DOCUME~1\g\LOCALS~1\Temp\ccflNc42.ltrans5.ltrans.o
                0x000000000008d3f8                zps_bAplZdoIeeeAddrServer
                0x000000000008d613                zps_bAplZdoNwkAddrServer
                0x000000000008d794                eBeaconReqSent.146674
                0x000000000008db07                PWRM_vManagePower
                0x000000000008dc51                vTransformKey.isra.0.69652
                0x000000000008dc81                vMiniMac_McpsCallback
                0x000000000008dead                eMcpsTxCompleteHandler.145527
                0x000000000008dedb                u8PDM_CalculateFileSystemCapacity
                0x000000000008def9                u8PDM_GetFileSystemOccupancy
                0x000000000008df11                vPdmEventHandlerCallback.3255
                0x000000000008dfb0                vFreePendingReqDescr
                0x000000000008e01a                vHandleRouteDiscoveryExpiry.133415
                0x000000000008e078                zps_vSendJoinDcfm
                0x000000000008e0be                vGiveUp.140994
                0x000000000008e0f6                eZCL_TransmitInterPanRequest.constprop.37
                0x000000000008e161                eCLD_ZllCommissionCommandNetworkJoinRouterRspCommandSend.constprop.30
                0x000000000008e18b                eSendScanResponse.6777.constprop.35
                0x000000000008e2f9                zps_u8AplApsConstructAndPostLoopBackDataInd.66711
                0x000000000008e432                u8PostUnicastMsgToNHLE.66719
                0x000000000008e46b                zps_psNwkInitCmdFrame
                0x000000000008e4ea                eSendLinkStatusDataDcfm.part.1.127561
 .text          0x000000000008e61c     0x175e C:\DOCUME~1\g\LOCALS~1\Temp\ccflNc42.ltrans6.ltrans.o
                0x000000000008e61c                PDUM_eNPduAllocate
                0x000000000008e68b                PDUM_eNPduClone
                0x000000000008e6d7                PDUM_eNPduFree
                0x000000000008e744                vPostVsMcpsDcfmInd.80011
                0x000000000008e82d                ZPS_vInterceptMcpsDataCallback
                0x000000000008e88f                zps_vNwkMcpsMgrFreeReqDescr
                0x000000000008e8c1                zps_psAllocateAndFormatMacHdr
                0x000000000008ebaa                zps_vNwkRemoveConflictedBroadcast
                0x000000000008ebfc                zps_vNwkMcpsMgrTidyBtrReqDescr
                0x000000000008ec40                vNwkBttTimerExpiry.135932
                0x000000000008ed5e                MAC_vHandleMcpsVsReqRsp
                0x000000000008eedf                PDUM_hAPduAllocateAPduInstance
                0x000000000008ef53                hZCL_AllocateAPduInstance
                0x000000000008ef8f                zps_eAplZdoSendZdpResponse
                0x000000000008efd8                bSendResponse.96843
                0x000000000008f01b                PDUM_eAPduFreeAPduInstance
                0x000000000008f35a                zps_bAplZdoMatchDescServer
                0x000000000008f36e                zps_bAplZdoNodeDescServer
                0x000000000008f4da                zps_bAplZdoSimpleDescServer
                0x000000000008f73b                zps_bAplZdoPowerDescServer
                0x000000000008f858                zps_bAplZdoActiveEpServer
                0x000000000008f941                zps_bAplZdoSystemServerDiscoveryServer
                0x000000000008f9ca                zps_bAplZdoMgmtLqiServer
                0x000000000008fbf6                zps_bAplZdoMgmtRtgServer
                0x000000000008fd3c                vLoadNwkRecord.130468
 .text          0x000000000008fd7a     0x11e4 C:\DOCUME~1\g\LOCALS~1\Temp\ccflNc42.ltrans7.ltrans.o
                0x000000000008fd7a                zps_vNwkHandleCmeRouteDiscoveryReq
                0x000000000008fe00                zps_eNwkHandleSceRouteRecord
                0x000000000008fed4                vPDM_MoveAllDataFromListToList
                0x000000000008ff12                vPDM_MoveAllDataWithBufferIdAndStateFromListToList
                0x000000000008ff9d                vPDM_MoveAllDataToDeAllocList
                0x000000000008ffc5                iPDM_ReconstructReplacedDataTable
                0x0000000000090244                vPDM_ImageBitmapRepair.122244
                0x00000000000902a5                vPDM_MoveAllDataWithBufferIdFromListToList
                0x000000000009032a                vPDM_DeleteAppendedSequence
                0x00000000000903cf                PDM_eSaveRecordData
                0x0000000000090804                ZPS_vNwkSaveRecord
                0x0000000000090872                ZPS_vNwkResetOutgoingFrameCounter
                0x00000000000908c6                zps_psSendFrm
                0x0000000000090be2                zps_psSendBroadcastFrm
                0x0000000000090c78                ZPS_vNwkHandleNldeReqRsp
                0x0000000000090e58                zps_eAplApsmeCmdMgrSendCommand
                0x0000000000090f35                zps_vAplApsmeCmdMgrRetryTimeout.68093
 .text          0x0000000000090f5e     0x1691 C:\DOCUME~1\g\LOCALS~1\Temp\ccflNc42.ltrans8.ltrans.o
                0x0000000000090f5e                zps_eNwkHandleSceLinkStatus
                0x0000000000091092                eSmeOrphScanDcfm.141441
                0x000000000009110a                vContinueRejoin.140224
                0x00000000000911b1                zps_psFindKeyDescr
                0x00000000000912e5                zps_eAplSecEncryptPacket
                0x00000000000913d4                eUnfragmentedUnicastTransmission.66694
                0x0000000000091683                zps_eAplSendApsmeCmdFrame
                0x00000000000917f4                vApsmeResendTimeOutHandler
                0x0000000000091823                ZPS_bNwkNibAddrMapAddEntry
                0x00000000000919ea                zps_vAgeRouter
                0x0000000000091a29                zps_eNwkHandleSdeActvDcfmData
                0x0000000000091bb3                vMcpsMgrTimeoutExpiry
                0x0000000000091c22                zps_eDefaultDataDcfm
                0x0000000000091df7                zps_vLinkStatusHandleExpiry
                0x0000000000091e98                zps_eNwkHandleSceRouteRequest
                0x00000000000922c7                zps_sNwkNibNtCheckJoin
                0x0000000000092570                zps_vNwkHandleCmeDirectJoinReq
 .text.unlikely
                0x00000000000925ef       0x5f C:\DOCUME~1\g\LOCALS~1\Temp\ccflNc42.ltrans8.ltrans.o
                0x00000000000925ef                vInitUnknownNeighbor.129508
 *fill*         0x000000000009264e        0x2 00
 .text          0x0000000000092650     0x1424 C:\DOCUME~1\g\LOCALS~1\Temp\ccflNc42.ltrans9.ltrans.o
                0x000000000009273c                vMiniMac_MlmeCallback
                0x0000000000092a27                vSendMlmeCommStatusFromTxFrame
                0x0000000000092a7d                MAC_vHandleMlmeVsReqRsp.constprop.100
                0x00000000000932ac                vScanBeaconReceived
                0x00000000000932eb                vPostDcfm.146689
                0x0000000000093354                vScanNextChannel.146695
                0x000000000009356c                vRunningRxCallback
                0x00000000000938c9                iPDM_VerifyDataSequenceWithBufferId
                0x000000000009396b                eCLD_GroupsRemoveAllGroups
                0x0000000000093a3d                vRemoveAllGroupsAndScenes
 .text          0x0000000000093a74     0x1321 C:\DOCUME~1\g\LOCALS~1\Temp\ccflNc42.ltrans10.ltrans.o
                0x0000000000093a74                eZCL_CustomCommandReceive
                0x0000000000093be2                eCLD_ColourControlCommandHandler
                0x0000000000094d8c                eCLD_OnOffCommandReceive
 *fill*         0x0000000000094d95        0x3 00
 .text          0x0000000000094d98     0x14c0 C:\DOCUME~1\g\LOCALS~1\Temp\ccflNc42.ltrans11.ltrans.o
                0x0000000000094e58                os_vAPP_Commission_Task
                0x0000000000095efb                os_vAPP_ZPR_Light_Task
 .text          0x0000000000096258     0x14b8 C:\DOCUME~1\g\LOCALS~1\Temp\ccflNc42.ltrans12.ltrans.o
                0x0000000000096405                zps_eNwkHandleSceNwkStatus
                0x00000000000965c3                eTryNextParent
                0x00000000000966ff                vCheckSleepingSendPoll.part.1.141543
                0x0000000000096769                vSdeHandleMcpsDataInd.129592
                0x00000000000973ec                ZPS_vNwkNibCheckAndUpdateAddresses
                0x0000000000097483                zps_bAplZdoDeviceAnnceServer
 .text          0x0000000000097710     0x129c C:\DOCUME~1\g\LOCALS~1\Temp\ccflNc42.ltrans13.ltrans.o
                0x0000000000097710                vPDM_AddFileSystemElementToListInAscendingWearCountOrder
                0x000000000009781e                vPDM_MoveFileRecordFromListToList
                0x0000000000097840                vPDM_MoveRecordToDeAllocList
                0x0000000000097860                iPDM_WriteSegmentHeaderAndData
                0x0000000000097a5c                vIncrementFrameCounterInPdm.isra.0.130902
                0x0000000000097c3b                vProcessListsForSubmission.129612
                0x0000000000097ef5                zps_vNwkMcpsMgrPost
                0x0000000000097f19                zps_psNwkInitiateRouteDiscovery
                0x0000000000098109                psNwkSendRouteRecordCmd.134103
                0x0000000000098251                zps_psNwkSendRejoinReqCmd.constprop.6
                0x00000000000982c1                zps_psSendNetworkStatusCmd
                0x000000000009832e                vSendNetworkReport.128596
                0x0000000000098408                psSendRouteReplyCmd.133837
                0x000000000009851a                zps_eNwkHandleSceRouteReply
                0x0000000000098859                zps_psNwkPropagateLocalLeave
                0x0000000000098881                zps_vNwkHandleCmeLeaveReq
                0x000000000009894f                iPDM_SegmentCopyAndAppendData.constprop.161
 .text.unlikely
                0x00000000000989ac       0xaa C:\DOCUME~1\g\LOCALS~1\Temp\ccflNc42.ltrans13.ltrans.o
                0x00000000000989ac                eMakeEntryInBindingTable.68147
 .text          0x0000000000098a56     0x125f C:\DOCUME~1\g\LOCALS~1\Temp\ccflNc42.ltrans14.ltrans.o
                0x0000000000098a56                eCLD_ScenesCommandHandler
 *fill*         0x0000000000099cb5        0x3 00
 .text          0x0000000000099cb8      0xf7c C:\DOCUME~1\g\LOCALS~1\Temp\ccflNc42.ltrans15.ltrans.o
                0x0000000000099cb8                os_vzps_taskZPS
                0x0000000000099ee1                vMcpsMgrExpiry.129496
                0x0000000000099f40                vBbcIntHandler.145326
                0x000000000009a209                os_vzps_isrMAC
                0x000000000009a248                eAssocRespSent.146235
                0x000000000009a267                zps_vNwkHandleCmeSyncReq
                0x000000000009a2e9                zps_vNwkHandleCmeIdleNwkFormReq
                0x000000000009a391                zps_vNwkHandleCmeNwkDiscReq
                0x000000000009a40b                zps_vNwkHandleCmeEdScanReq
                0x000000000009a620                zps_vNwkHandleCmeNwkJoinReq
                0x000000000009a8dd                zps_vNwkHandleCmeNwkActvJoinReq
                0x000000000009a979                vHandleRejoinExpiry.140990
                0x000000000009a9d8                zps_eRejoinDataDcfm
                0x000000000009aba2                vSetKeys
 .text          0x000000000009ac34     0x1214 C:\DOCUME~1\g\LOCALS~1\Temp\ccflNc42.ltrans16.ltrans.o
                0x000000000009ae5b                zps_eZdpIeeeAddrResponse
                0x000000000009af3e                zps_eAplZdpMgmtRtgResponse
                0x000000000009b0b7                zps_eZdpNwkAddrResponse
                0x000000000009b19a                zps_eZdpNodeDescResponse
                0x000000000009b242                zps_eZdpPowerDescResponse
                0x000000000009b2df                zps_eZdpSimpleDescResponse
                0x000000000009b3ec                zps_eZdpActiveEpResponse
                0x000000000009b482                zps_eZdpMatchDescResponse
                0x000000000009b518                zps_eZdpSystemServerDiscoveryResponse
                0x000000000009b587                zps_eAplZdpMgmtLqiResponse
                0x000000000009b66f                zps_bAplZdoMgmtNWKUpdateServer
                0x000000000009b9df                eZCL_TransmitDataRequest
                0x000000000009bd49                eZCL_SendDefaultResponse
 .text          0x000000000009be48     0x1458 C:\DOCUME~1\g\LOCALS~1\Temp\ccflNc42.ltrans17.ltrans.o
                0x000000000009be48                APP_ZCL_cbGeneralCallback.5795
                0x000000000009bf0e                eCLD_LevelControlSceneEventHandler.17586
                0x000000000009bf7d                bCLD_GroupsSearchForGroup.14897
                0x000000000009bfab                vCLD_IdentifyTimerClickCallback.15963
                0x000000000009c03e                eCLD_ScenesSaveClusters.constprop.42
                0x000000000009c2fe                vCLD_ScenesUpdateSceneValid
                0x000000000009c3b5                eCLD_ColourControlUpdate
                0x000000000009ca73                eCLD_OnOffSetGlobalSceneControl.constprop.20
                0x000000000009cac3                APP_ZCL_vSetIdentifyTime
                0x000000000009cb2c                APP_vHandleIdentify
                0x000000000009cc9a                APP_ZCL_cbEndpointCallback.5792
 .text          0x000000000009d2a0     0x123c C:\DOCUME~1\g\LOCALS~1\Temp\ccflNc42.ltrans18.ltrans.o
                0x000000000009d2a0                vHandleZllDeviceJoin
                0x000000000009d5cc                vPostNldeDcfmInd.64124
                0x000000000009e0bc                vAckTimeOutHandler
                0x000000000009e169                vSaveScenesNVM
                0x000000000009e249                eCLD_ScenesCreateScenes.constprop.136
                0x000000000009e301                zps_eAplZdoGroupEndpointRemove
                0x000000000009e399                zps_eAplApsmeUpdateDeviceReqRsp.part.4.68258
 .text          0x000000000009e4dc     0x110d C:\DOCUME~1\g\LOCALS~1\Temp\ccflNc42.ltrans19.ltrans.o
                0x000000000009e544                zps_vNwkHandleCmeActvStartRouterReq
                0x000000000009e680                vHandleNwkLocalUpdateAfterBcast.128613
                0x000000000009e6d4                vHandleNwkRemoteUpdateAfterBcast.128604
                0x000000000009e728                eSmeAcScScanDcfm.138372
                0x000000000009e9f6                ZPS_pvNwkCtor.constprop.97
                0x000000000009ef79                ZPS_vNwkHandleNlmeReqRsp
                0x000000000009eff6                zps_vAplAfPostEvent
                0x000000000009f1e3                zps_eAplZdoLeaveNetwork.constprop.32
                0x000000000009f20e                zps_bAplZdoMgmtLeaveServer
                0x000000000009f38e                zps_eAplZdoNlmePermitJoiningWrapper
                0x000000000009f3b6                zps_bAplZdoPermitJoiningServer
                0x000000000009f450                vChangeChannelTimerExpiry.98024
                0x000000000009f4b3                eLeaveReset.142424
                0x000000000009f51e                eLeaveDataDcfmLocalLeave.142434
                0x000000000009f598                zps_eAplZdoZllStartRouter
 .text          0x000000000009f5e9     0x1413 C:\DOCUME~1\g\LOCALS~1\Temp\ccflNc42.ltrans20.ltrans.o
                0x000000000009f5e9                os_bDummyMemberCheck.60879
                0x000000000009f5ee                os_vDefaultErrorHook.60875
                0x000000000009f618                vOSError.3263
                0x000000000009f61b                vOverideProfileId.7426
                0x000000000009f66c                bCLD_ScenesSearchForScene.3361
                0x000000000009f69f                vfExtendedStatusCallBack
                0x000000000009f6a2                os_bStrictCheck.1358
                0x000000000009f935                PDUM_eNPduWriteDataToBuffer
                0x000000000009f993                PDUM_eNPduWriteFromBuffer
                0x000000000009f9bc                PDUM_eNPduDescend
                0x000000000009f9e2                PDUM_eNPduAscend
                0x000000000009fa08                PDUM_eNPduClaimData
                0x000000000009fa75                PDUM_eNPduClaimHeader
                0x000000000009fa98                PDUM_eNPduInitDescending
                0x000000000009fab3                OS_eCollectMessage
                0x000000000009fb78                OS_eEnterCriticalSection
                0x000000000009fc40                eExpireSWTimer.60888
                0x000000000009fcab                eZCL_BuildClientTransmitAddressStructure
                0x000000000009fcdc                eZCL_GetAttributeTypeSize
                0x000000000009fcfb                vZCL_MarkAttributeInvalid
                0x000000000009fdca                eZCL_Register
                0x000000000009ffe1                u8ZCL_GetAttributeAllignToFourBytesBoundary
                0x000000000009fff6                pvZCL_GetAttributePointer
                0x00000000000a006c                u16ZCL_WriteTypeNBO.part.0.42245
                0x00000000000a00e1                u16ZCL_GetStringStructureSize
                0x00000000000a011e                u16ZCL_GetStringAttributeTypeSizeFromBuffer
                0x00000000000a018f                u16ZCL_GetStringSizeAndBufferFromStructure
                0x00000000000a021e                bZCL_SendCommandResponse
                0x00000000000a023a                vZCL_GetInternalMutex
                0x00000000000a0263                eZCL_GetMutex
                0x00000000000a029b                u8ZCL_GetEPIdFromIndex
                0x00000000000a02bd                vZCL_ReleaseInternalMutex
                0x00000000000a02d7                eZCL_SearchForAttributeEntry
                0x00000000000a0397                vCLD_ScenesGenerateIndividualAttributeCallback
                0x00000000000a03f1                eZCL_SearchForEPentry
                0x00000000000a044c                eZCL_SearchForEPentryAndCheckManufacturerId
                0x00000000000a048a                vZCL_PassEventToUser
                0x00000000000a04b7                eZCL_ReleaseMutex
                0x00000000000a04e6                boDLISTisEmpty
                0x00000000000a04fe                vDLISTaddToTail
                0x00000000000a052c                psDLISTremoveFromHead
                0x00000000000a0555                psDLISTremove
                0x00000000000a05ad                bCLD_ColourControl_NumberIsValid.39537
                0x00000000000a05cc                eCLD_ColourControl_xyY2XYZ.39541
                0x00000000000a064e                vCLD_ColourControl_XYZ2RGB.39528
                0x00000000000a076e                vWriteU64ToPayLoad.25876
                0x00000000000a079b                vWriteU32ToPayLoad.25872
                0x00000000000a07b3                i16TS_GetTemperature
                0x00000000000a082c                u32LC_StringToUnsignedInteger.7159
                0x00000000000a088f                vLI_InitVar.7092
                0x00000000000a08c0                InvShiftRows
                0x00000000000a0953                InvSubBytes
                0x00000000000a0999                AddRoundKey
                0x00000000000a09da                getSBoxValue.5150
 *fill*         0x00000000000a09fc        0x0 00
 .text          0x00000000000a09fc      0xfb0 C:\DOCUME~1\g\LOCALS~1\Temp\ccflNc42.ltrans21.ltrans.o
                0x00000000000a09fc                vAplSecAuthPollTimerExpiry.73143
                0x00000000000a0a54                vAplSecAuthTimerExpiry.73147
                0x00000000000a0b24                vHandleApsInterPanDcfmData
                0x00000000000a0f52                vPostApsdeDcfmInd.64117
                0x00000000000a115b                zps_vHandleApsdeDataFragIndNotSupported
                0x00000000000a11c4                vApsInterPanMcpsDataInd
                0x00000000000a136b                eDiscoverNetworks.73213
                0x00000000000a13c7                zps_eAplZdoDiscoverNetworks
                0x00000000000a13f0                eStartNetworkDiscovery.73220
                0x00000000000a147d                eStartRouter.73230
                0x00000000000a154c                vPostApsmeDcfmInd.64110
 .text          0x00000000000a19ac     0x1194 C:\DOCUME~1\g\LOCALS~1\Temp\ccflNc42.ltrans22.ltrans.o
                0x00000000000a19ac                zps_vAplSaveRecord
                0x00000000000a1ae8                zps_bNwkFindAddIeeeAddr
                0x00000000000a1c66                eCheckAddrConflict.isra.4.128833
                0x00000000000a1cfc                vAplSecRemoveLinkKey.73259
                0x00000000000a1d79                ZPS_vRemoveEntryFromAddressMap
                0x00000000000a1dc2                ZPS_vNwkSaveAllRecords
                0x00000000000a1dd9                zps_vSaveAllZpsRecords
                0x00000000000a1df8                ZPS_vNwkNibSetNwkAddr
                0x00000000000a1e17                zps_eNwkHandleSceRejnResponse
                0x00000000000a1e74                ZPS_vNwkNibSetExtPanId
                0x00000000000a1e99                ZPS_vNwkNibSetKeySeqNum
                0x00000000000a1eae                ZPS_vNwkNibSetDepth
                0x00000000000a1ed7                ZPS_vNwkNibSetUpdateId
                0x00000000000a1ee7                vSendNetworkUpdate.128600
                0x00000000000a2017                ZPS_vNwkNibSetPanId
                0x00000000000a2036                ZPS_vNwkNibSetCapabilityInfo
                0x00000000000a2064                ZPS_vNwkNibSetChannel
                0x00000000000a207d                zps_u8NwkHandleRejoinReq
                0x00000000000a2146                zps_vProcessLocalAddrConflict
                0x00000000000a21f1                ZPS_vNwkSaveNt
                0x00000000000a230c                ZPS_vNtSetUsedStatus
                0x00000000000a23b3                zps_vJoinInitNtParent
                0x00000000000a2509                zps_vBuildSortedActvNTList
                0x00000000000a25c7                zps_vCheckActvNtForDuplicate
                0x00000000000a2663                vFinish.141431
                0x00000000000a26b9                zps_eNwkHandleSceLeave
                0x00000000000a287b                zps_vCleanUnAuthenHandleExpiry
                0x00000000000a297d                eUnsolicitedRejoinRspDataDcfm.128608
                0x00000000000a29a8                eRejoinRspDataDcfm.140228
                0x00000000000a2a77                zps_eNwkHandleSmeCommStatusInd
                0x00000000000a2b2b                ZPS_vNwkSaveSecMat
 *fill*         0x00000000000a2b40        0x0 00
 .text          0x00000000000a2b40     0x1080 C:\DOCUME~1\g\LOCALS~1\Temp\ccflNc42.ltrans23.ltrans.o
                0x00000000000a2e9c                zps_eNwkHandleSmeAssocInd
                0x00000000000a2ebe                zps_eNwkHandleSceRejnRequest
                0x00000000000a2fed                zps_eNwkHandleSmeOrphanInd
                0x00000000000a2ffd                vStartScanTimerExpiry.98028
                0x00000000000a3039                zps_vAplApsPollTimer
                0x00000000000a3205                vPostNlmeDcfmInd.64103
                0x00000000000a3916                zps_vProcessChildAddrConflict
                0x00000000000a39d9                vDiscoverNetworks.4440
                0x00000000000a3ab9                vTryNwkJoin.4442
 .text          0x00000000000a3bc0      0xf3c C:\DOCUME~1\g\LOCALS~1\Temp\ccflNc42.ltrans24.ltrans.o
                0x00000000000a4525                os_vTick_Task
                0x00000000000a4ac8                os_vZCL_Task
 .text          0x00000000000a4afc      0xf64 C:\DOCUME~1\g\LOCALS~1\Temp\ccflNc42.ltrans25.ltrans.o
                0x00000000000a4f72                eCLD_ZllCommissionCommandHandler
                0x00000000000a51a9                eCLD_LevelControlCommandHandler
                0x00000000000a55ca                vZCL_HandleAttributesWriteRequest
 .text          0x00000000000a5a60      0xfa7 C:\DOCUME~1\g\LOCALS~1\Temp\ccflNc42.ltrans26.ltrans.o
                0x00000000000a5a60                DBG_iUartGetChar
                0x00000000000a5ab0                os_vAPP_cbEnableTickTimer
                0x00000000000a5b30                eOrphanNotificationSent.146670
                0x00000000000a5b79                vMiniMac_NextTransaction
                0x00000000000a5be3                DriverBulb_vOutput
                0x00000000000a5e4d                vLI_UpdateDriver
                0x00000000000a5f3b                ZPS_bSecDecrypt
                0x00000000000a604d                boPDM_IsBitmapSaturated.123221
                0x00000000000a6096                vAHI_UartConfigureFIFOs.part.5.148855
                0x00000000000a6106                DBG_vUartInitHardware
                0x00000000000a61d9                iPDM_SearchForBufferIdInList
                0x00000000000a620e                iPDM_SearchForBufferIdInFileSystem
                0x00000000000a6221                iPDM_ReadUserDataFromSegmentWithId
                0x00000000000a6256                iPDM_SearchForSpecificSegmentInList
                0x00000000000a6288                psGetTxFrameBuffer
                0x00000000000a62c7                psGetAndBuildCoordRealignment
                0x00000000000a631f                MAC_vPibSetRxOnWhenIdle.constprop.99
                0x00000000000a6328                eTransmit
                0x00000000000a6405                eBuildAndSend.146678
                0x00000000000a647a                vPostTxActions.145946
                0x00000000000a64b7                vMiniMac_TxComplete
                0x00000000000a659d                vTimerFired
                0x00000000000a6655                vMiniMac_Init
 *fill*         0x00000000000a6a07        0x1 00
 .text          0x00000000000a6a08      0xd84 C:\DOCUME~1\g\LOCALS~1\Temp\ccflNc42.ltrans27.ltrans.o
                0x00000000000a6a08                eZCL_CustomCommandSend.constprop.21
                0x00000000000a6c6a                eCLD_IdentifyCommandHandler
                0x00000000000a7172                eCLD_GroupsCommandHandler
 .text          0x00000000000a778c      0xd47 C:\DOCUME~1\g\LOCALS~1\Temp\ccflNc42.ltrans28.ltrans.o
                0x00000000000a778c                ZPS_vAplHandleApsdeReqRsp
                0x00000000000a7bac                zps_eAplZdpApsdeReqInternal
                0x00000000000a7d23                zps_bAplZdoZdoClient
                0x00000000000a8193                zps_bAplZdoDefaultServer
                0x00000000000a844f                zps_eZdpMgmtLeaveResponse
                0x00000000000a8470                zps_eZdpMgmtPermitJoiningResponse
 *fill*         0x00000000000a84d3        0x1 00
 .text          0x00000000000a84d4      0xfb4 C:\DOCUME~1\g\LOCALS~1\Temp\ccflNc42.ltrans29.ltrans.o
                0x00000000000a84d4                eCLD_OnOffSceneEventHandler.19036
                0x00000000000a85a6                eCLD_ColourControlSceneEventHandler.38038
                0x00000000000a8608                OS_eExitCriticalSection
                0x00000000000a86ed                PDM_eReadDataFromRecord.part.0.121649
                0x00000000000a8770                vLoadAplRecord.73193
                0x00000000000a87a4                ZPS_eTsvStart
                0x00000000000a8800                zps_eAplZdoBdrmRequestSend
                0x00000000000a887b                zps_eNwkHandleSceNwkUpdate
                0x00000000000a88a0                vProcessTimedList.129524
                0x00000000000a88e6                zps_vNwkMcpsMgrPostTimed
                0x00000000000a88f9                vNwkMcpsSendTimedDfcm
                0x00000000000a893e                zps_vAplAfPostTimerEvent
                0x00000000000a89bb                zps_vExpireOldRoutes
                0x00000000000a8a44                zps_vNwkJoinStStartResponseTimer
                0x00000000000a8a7f                ZPS_eTsvStop
                0x00000000000a8ad3                zps_vNwkHandleCmePermitJoinReq
                0x00000000000a8b3b                zps_eNwkBtrMatch
                0x00000000000a8c38                zps_vAplApsStopPollTimer.part.2.66600
                0x00000000000a8cbf                ZPS_bSecEncrypt
                0x00000000000a8e79                eHandleRemoveBroadcastEndpointsFromGroup.68120
                0x00000000000a8ed3                eZCL_SetReceiveEventAddressStructure
                0x00000000000a8f52                eCLD_LevelControlUpdate
                0x00000000000a92ac                eCLD_LevelControlStopTransition
                0x00000000000a92f4                eCLD_LevelControlSetOnOffState
 .text          0x00000000000a9488      0x99c C:\DOCUME~1\g\LOCALS~1\Temp\ccflNc42.ltrans30.ltrans.o
                0x00000000000a9488                AppWarmStart
                0x00000000000a94a4                AppColdStart
                0x00000000000a9884                os_vUnclaimedInterrupt
                0x00000000000a9896                os_vControlledIntCheck
                0x00000000000a98db                os_vControlledInterrupt
                0x00000000000a9914                os_vAPP_isrTimer1
                0x00000000000a99d6                os_vAPP_isrAdc
                0x00000000000a9a0d                os_vAPP_isrUart
                0x00000000000a9d0b                os_vAPP_isrIllegalInstruction
                0x00000000000a9d18                os_vAPP_isrAlignmentException
                0x00000000000a9d25                os_vAPP_isrBusErrorException
                0x00000000000a9d29                os_vAPP_isrUnimplementedModuleException
                0x00000000000a9d2d                os_vAPP_isrStackOverflowException
                0x00000000000a9d31                os_vAPP_isrTickTimer
 .text          0x00000000000a9e24      0x4ab C:\DOCUME~1\g\LOCALS~1\Temp\ccflNc42.ltrans31.ltrans.o
                0x00000000000a9e24                eCLD_OnOffCommandHandler
 .text          0x00000000000aa2cf       0x25 c:/nxp/bstudio_nxp/sdk/tools/ba-elf-ba2-r36379/bin/../lib/gcc/ba-elf/4.7.4/../../../../ba-elf/lib/mcpu_jn51xx_sizeopt\libc.a(lib_a-memcmp.o)
                0x00000000000aa2cf                memcmp
 .text          0x00000000000aa2f4       0x19 c:/nxp/bstudio_nxp/sdk/tools/ba-elf-ba2-r36379/bin/../lib/gcc/ba-elf/4.7.4/../../../../ba-elf/lib/mcpu_jn51xx_sizeopt\libc.a(lib_a-memcpy.o)
 .text          0x00000000000aa30d       0x12 c:/nxp/bstudio_nxp/sdk/tools/ba-elf-ba2-r36379/bin/../lib/gcc/ba-elf/4.7.4/../../../../ba-elf/lib/mcpu_jn51xx_sizeopt\libc.a(lib_a-memset.o)
                0x00000000000aa30d                memset
 .text          0x00000000000aa31f       0x12 c:/nxp/bstudio_nxp/sdk/tools/ba-elf-ba2-r36379/bin/../lib/gcc/ba-elf/4.7.4/../../../../ba-elf/lib/mcpu_jn51xx_sizeopt\libc.a(lib_a-strlen.o)
                0x00000000000aa31f                strlen
 .text          0x00000000000aa331       0x2b c:/nxp/bstudio_nxp/sdk/tools/ba-elf-ba2-r36379/bin/../lib/gcc/ba-elf/4.7.4/../../../../ba-elf/lib/mcpu_jn51xx_sizeopt\libc.a(lib_a-strncpy.o)
                0x00000000000aa331                strncpy
 *fill*         0x00000000000aa35c        0x0 00
 .text          0x00000000000aa35c      0x204 c:/nxp/bstudio_nxp/sdk/tools/ba-elf-ba2-r36379/bin/../lib/gcc/ba-elf/4.7.4/mcpu_jn51xx_sizeopt\libgcc.a(__udivsi3.o)
                0x00000000000aa35c                __udivsi3
 .text          0x00000000000aa560       0x30 c:/nxp/bstudio_nxp/sdk/tools/ba-elf-ba2-r36379/bin/../lib/gcc/ba-elf/4.7.4/mcpu_jn51xx_sizeopt\libgcc.a(__divsi3.o)
                0x00000000000aa560                __divsi3
 .text          0x00000000000aa590      0x1b0 c:/nxp/bstudio_nxp/sdk/tools/ba-elf-ba2-r36379/bin/../lib/gcc/ba-elf/4.7.4/mcpu_jn51xx_sizeopt\libgcc.a(__umodsi3.o)
                0x00000000000aa590                __umodsi3
 .text          0x00000000000aa740       0x24 c:/nxp/bstudio_nxp/sdk/tools/ba-elf-ba2-r36379/bin/../lib/gcc/ba-elf/4.7.4/mcpu_jn51xx_sizeopt\libgcc.a(__modsi3.o)
                0x00000000000aa740                __modsi3
 .text          0x00000000000aa764       0x39 c:/nxp/bstudio_nxp/sdk/tools/ba-elf-ba2-r36379/bin/../lib/gcc/ba-elf/4.7.4/mcpu_jn51xx_sizeopt\libgcc.a(_fixunsdfsi.o)
                0x00000000000aa764                __fixunsdfsi
 .text          0x00000000000aa79d      0x3bd c:/nxp/bstudio_nxp/sdk/tools/ba-elf-ba2-r36379/bin/../lib/gcc/ba-elf/4.7.4/mcpu_jn51xx_sizeopt\libgcc.a(_divdi3.o)
                0x00000000000aa79d                __divdi3
 .text          0x00000000000aab5a      0x350 c:/nxp/bstudio_nxp/sdk/tools/ba-elf-ba2-r36379/bin/../lib/gcc/ba-elf/4.7.4/mcpu_jn51xx_sizeopt\libgcc.a(_udivdi3.o)
                0x00000000000aab5a                __udivdi3
 .text          0x00000000000aaeaa      0x384 c:/nxp/bstudio_nxp/sdk/tools/ba-elf-ba2-r36379/bin/../lib/gcc/ba-elf/4.7.4/mcpu_jn51xx_sizeopt\libgcc.a(addsf3.o)
                0x00000000000aaeaa                __addsf3
 *fill*         0x00000000000ab22e        0x2 00
 .text          0x00000000000ab230      0x218 c:/nxp/bstudio_nxp/sdk/tools/ba-elf-ba2-r36379/bin/../lib/gcc/ba-elf/4.7.4/mcpu_jn51xx_sizeopt\libgcc.a(divsf3.o)
                0x00000000000ab230                __divsf3
 .text          0x00000000000ab448       0x81 c:/nxp/bstudio_nxp/sdk/tools/ba-elf-ba2-r36379/bin/../lib/gcc/ba-elf/4.7.4/mcpu_jn51xx_sizeopt\libgcc.a(eqsf2.o)
                0x00000000000ab448                __eqsf2
                0x00000000000ab448                __nesf2
 .text          0x00000000000ab4c9       0xac c:/nxp/bstudio_nxp/sdk/tools/ba-elf-ba2-r36379/bin/../lib/gcc/ba-elf/4.7.4/mcpu_jn51xx_sizeopt\libgcc.a(gesf2.o)
                0x00000000000ab4c9                __gesf2
                0x00000000000ab4c9                __gtsf2
 .text          0x00000000000ab575       0xac c:/nxp/bstudio_nxp/sdk/tools/ba-elf-ba2-r36379/bin/../lib/gcc/ba-elf/4.7.4/mcpu_jn51xx_sizeopt\libgcc.a(lesf2.o)
                0x00000000000ab575                __ltsf2
                0x00000000000ab575                __lesf2
 *fill*         0x00000000000ab621        0x3 00
 .text          0x00000000000ab624      0x24c c:/nxp/bstudio_nxp/sdk/tools/ba-elf-ba2-r36379/bin/../lib/gcc/ba-elf/4.7.4/mcpu_jn51xx_sizeopt\libgcc.a(mulsf3.o)
                0x00000000000ab624                __mulsf3
 .text          0x00000000000ab870      0x3a2 c:/nxp/bstudio_nxp/sdk/tools/ba-elf-ba2-r36379/bin/../lib/gcc/ba-elf/4.7.4/mcpu_jn51xx_sizeopt\libgcc.a(subsf3.o)
                0x00000000000ab870                __subsf3
 .text          0x00000000000abc12       0x53 c:/nxp/bstudio_nxp/sdk/tools/ba-elf-ba2-r36379/bin/../lib/gcc/ba-elf/4.7.4/mcpu_jn51xx_sizeopt\libgcc.a(fixsfsi.o)
                0x00000000000abc12                __fixsfsi
 .text          0x00000000000abc65       0xad c:/nxp/bstudio_nxp/sdk/tools/ba-elf-ba2-r36379/bin/../lib/gcc/ba-elf/4.7.4/mcpu_jn51xx_sizeopt\libgcc.a(floatunsisf.o)
                0x00000000000abc65                __floatunsisf
 .text          0x00000000000abd12      0x682 c:/nxp/bstudio_nxp/sdk/tools/ba-elf-ba2-r36379/bin/../lib/gcc/ba-elf/4.7.4/mcpu_jn51xx_sizeopt\libgcc.a(adddf3.o)
                0x00000000000abd12                __adddf3
 .text          0x00000000000ac394      0x5c8 c:/nxp/bstudio_nxp/sdk/tools/ba-elf-ba2-r36379/bin/../lib/gcc/ba-elf/4.7.4/mcpu_jn51xx_sizeopt\libgcc.a(divdf3.o)
                0x00000000000ac394                __divdf3
 .text          0x00000000000ac95c       0xca c:/nxp/bstudio_nxp/sdk/tools/ba-elf-ba2-r36379/bin/../lib/gcc/ba-elf/4.7.4/mcpu_jn51xx_sizeopt\libgcc.a(gedf2.o)
                0x00000000000ac95c                __gedf2
                0x00000000000ac95c                __gtdf2
 *fill*         0x00000000000aca26        0x2 00
 .text          0x00000000000aca28      0x488 c:/nxp/bstudio_nxp/sdk/tools/ba-elf-ba2-r36379/bin/../lib/gcc/ba-elf/4.7.4/mcpu_jn51xx_sizeopt\libgcc.a(muldf3.o)
                0x00000000000aca28                __muldf3
 .text          0x00000000000aceb0      0x693 c:/nxp/bstudio_nxp/sdk/tools/ba-elf-ba2-r36379/bin/../lib/gcc/ba-elf/4.7.4/mcpu_jn51xx_sizeopt\libgcc.a(subdf3.o)
                0x00000000000aceb0                __subdf3
 .text          0x00000000000ad543       0x64 c:/nxp/bstudio_nxp/sdk/tools/ba-elf-ba2-r36379/bin/../lib/gcc/ba-elf/4.7.4/mcpu_jn51xx_sizeopt\libgcc.a(fixdfsi.o)
                0x00000000000ad543                __fixdfsi
 .text          0x00000000000ad5a7       0x8f c:/nxp/bstudio_nxp/sdk/tools/ba-elf-ba2-r36379/bin/../lib/gcc/ba-elf/4.7.4/mcpu_jn51xx_sizeopt\libgcc.a(extendsfdf2.o)
                0x00000000000ad5a7                __extendsfdf2
 .text          0x00000000000ad636      0x13e c:/nxp/bstudio_nxp/sdk/tools/ba-elf-ba2-r36379/bin/../lib/gcc/ba-elf/4.7.4/mcpu_jn51xx_sizeopt\libgcc.a(truncdfsf2.o)
                0x00000000000ad636                __truncdfsf2
 *fill*         0x00000000000ad774        0x4 00
 .text          0x00000000000ad778      0x1d0 c:/NXP/bstudio_nxp/workspace/Custom_ZLL_Lights_someone42/MultiLight/Build/os_irq.o
                0x00000000000ad778                os_ExternalException_W
                0x00000000000ad7bc                os_PIC_ChannelPriorities
                0x00000000000ad7cc                os_OSMIUM_HwVectTable
                0x00000000000ad808                os_PIC_SwVectTable
 .text          0x00000000000ad948       0x29 c:/NXP/bstudio_nxp/workspace/Custom_ZLL_Lights_someone42/MultiLight/Build/os_irq_alignment.o
                0x00000000000ad948                IRQ_Alignment
 .text          0x00000000000ad971       0x29 c:/NXP/bstudio_nxp/workspace/Custom_ZLL_Lights_someone42/MultiLight/Build/os_irq_buserror.o
                0x00000000000ad971                IRQ_BusError
 .text          0x00000000000ad99a       0x29 c:/NXP/bstudio_nxp/workspace/Custom_ZLL_Lights_someone42/MultiLight/Build/os_irq_illegalinstruction.o
                0x00000000000ad99a                IRQ_IllegalInstruction
 .text          0x00000000000ad9c3       0x29 c:/NXP/bstudio_nxp/workspace/Custom_ZLL_Lights_someone42/MultiLight/Build/os_irq_stackoverflowexception.o
                0x00000000000ad9c3                IRQ_StackOverflowException
 .text          0x00000000000ad9ec       0x29 c:/NXP/bstudio_nxp/workspace/Custom_ZLL_Lights_someone42/MultiLight/Build/os_irq_unimplementedmodule.o
                0x00000000000ad9ec                IRQ_UnimplementedModule
 *fill*         0x00000000000ada15        0x3 00
 .text          0x00000000000ada18       0xc0 c:/NXP/bstudio_nxp/sdk/JN-SW-4168/Components/Library\libOS_JN516x.a(os_contirq_JN516x.o)
                0x00000000000ada18                os_ExternalException_R
                0x00000000000ada48                os_CFunc_W
                0x00000000000ada98                os_UnclaimedException_W
                0x00000000000adab8                os_UnclaimedInterrupt_W
 .text          0x00000000000adad8       0x48 c:/NXP/bstudio_nxp/sdk/JN-SW-4168/Components/Library\libPWRM_JN516x.a(pwrm_setjmp_JN516x.o)
                0x00000000000adad8                setjmp
                0x00000000000adafc                PWRM_longjmp
 .text          0x00000000000adb20       0x27 c:/NXP/bstudio_nxp/sdk/JN-SW-4168/Components/Library\libHardwareApi_JN5169.a(AHI_Interrupt.o)
                0x00000000000adb20                vAHI_InterruptSetPriority
                0x00000000000adb3e                vAHI_InterruptSetActivePriorityLevel
 .text.vMicroSyscall
                0x00000000000adb47       0x17 c:/NXP/bstudio_nxp/sdk/JN-SW-4168/Components/Library\libMicroSpecific_JN516x.a(MicroSyscall_ba.o)
                0x00000000000adb47                vMicroSyscall
 .text          0x00000000000adb5e        0x0 c:/NXP/bstudio_nxp/sdk/JN-SW-4168/Components/Library\libOS_JN516x.a(os_version_lc.o)
                0x00000000000adb5e                OS_Version_1v2
 .text          0x00000000000adb5e        0x0 c:/NXP/bstudio_nxp/sdk/JN-SW-4168/Components/Library\libZPSAPL_JN516x.a(zps_apl_version_lc.o)
                0x00000000000adb5e                ZPS_APL_Version_2v0
 .text          0x00000000000adb5e        0x0 c:/NXP/bstudio_nxp/sdk/JN-SW-4168/Components/Library\libZPSNWK_JN516x.a(zps_nwk_version_lc.o)
                0x00000000000adb5e                ZPS_NWK_Version_2v0
 .text          0x00000000000adb5e      0x12a c:/nxp/bstudio_nxp/sdk/tools/ba-elf-ba2-r36379/bin/../lib/gcc/ba-elf/4.7.4/../../../../ba-elf/lib/mcpu_jn51xx_sizeopt\libm.a(lib_a-s_floor.o)
                0x00000000000adb5e                floor
                0x00000000000adc88                _flash_end = ABSOLUTE (.)

.rela.dyn       0x00000000000adc88        0x0
 .rela.text     0x0000000000000000        0x0 c:/NXP/bstudio_nxp/workspace/Custom_ZLL_Lights_someone42/MultiLight/Build/os_irq.o
 .rela.data     0x0000000000000000        0x0 c:/NXP/bstudio_nxp/workspace/Custom_ZLL_Lights_someone42/MultiLight/Build/os_irq.o
 .rela.rodata   0x0000000000000000        0x0 c:/NXP/bstudio_nxp/workspace/Custom_ZLL_Lights_someone42/MultiLight/Build/os_irq.o
                0x000000000400004c                . = ORIGIN (ram)

.data           0x000000000400004c      0x984 load address 0x00000000000adc88
                0x000000000400004c                _ram_data_start = ABSOLUTE (.)
 *(.data*)
 .data          0x000000000400004c       0xe8 C:\DOCUME~1\g\LOCALS~1\Temp\ccflNc42.ltrans0.ltrans.o
                0x000000000400004c                u8MiniMacConfig_MaxConcurrentAssocResponses
                0x0000000004000050                psShadowRxBuffer
                0x0000000004000054                sCLD_Groups
                0x0000000004000064                sCLD_Scenes
 .data          0x0000000004000134        0x4 C:\DOCUME~1\g\LOCALS~1\Temp\ccflNc42.ltrans1.ltrans.o
                0x0000000004000134                u32HeapStart
 .data          0x0000000004000138        0x1 C:\DOCUME~1\g\LOCALS~1\Temp\ccflNc42.ltrans4.ltrans.o
 *fill*         0x0000000004000139        0x3 00
 .data          0x000000000400013c        0xc C:\DOCUME~1\g\LOCALS~1\Temp\ccflNc42.ltrans5.ltrans.o
                0x000000000400013c                bCanLoopback.66940
 .data          0x0000000004000148       0x90 C:\DOCUME~1\g\LOCALS~1\Temp\ccflNc42.ltrans11.ltrans.o
                0x0000000004000148                sDeviceTable.8659
                0x00000000040001b0                sZllState
 .data          0x00000000040001d8        0x1 C:\DOCUME~1\g\LOCALS~1\Temp\ccflNc42.ltrans15.ltrans.o
 *fill*         0x00000000040001d9        0x3 00
 .data          0x00000000040001dc      0x144 C:\DOCUME~1\g\LOCALS~1\Temp\ccflNc42.ltrans17.ltrans.o
 .data          0x0000000004000320       0xa4 C:\DOCUME~1\g\LOCALS~1\Temp\ccflNc42.ltrans20.ltrans.o
                0x0000000004000320                s_asapduZCLInstances
                0x0000000004000398                s_asapduZDPInstances
 .data          0x00000000040003c4        0x8 C:\DOCUME~1\g\LOCALS~1\Temp\ccflNc42.ltrans24.ltrans.o
 .data          0x00000000040003cc        0x1 C:\DOCUME~1\g\LOCALS~1\Temp\ccflNc42.ltrans26.ltrans.o
 *fill*         0x00000000040003cd        0x3 00
 .data          0x00000000040003d0      0x5e8 C:\DOCUME~1\g\LOCALS~1\Temp\ccflNc42.ltrans30.ltrans.o
                0x00000000040003d0                s_keyPairTableStorage.3051
                0x0000000004000430                os_Mutex_mutexMAC
                0x0000000004000438                os_Mutex_mutexZPS
                0x0000000004000440                s_sApl.3006
                0x0000000004000590                os_Message_APP_msgZpsEvents_ZCL
                0x00000000040005b4                os_SWTimer_APP_cntrTickTimer_APP_CommissionTimer
                0x00000000040005d0                os_SWTimer_APP_cntrTickTimer_APP_TickTimer
                0x00000000040005ec                os_Message_APP_msgZpsEvents
                0x0000000004000610                os_Message_APP_msgEvents
                0x0000000004000634                os_Message_APP_CommissionEvents
                0x0000000004000658                os_Message_zps_msgMlmeDcfmInd
                0x000000000400067c                os_Message_zps_msgTimeEvents
                0x00000000040006a0                os_Message_zps_msgMcpsDcfmInd
                0x00000000040006c4                os_Message_zps_msgMcpsDcfm
                0x00000000040006e8                os_Task_ZCL_Task
                0x00000000040006f4                os_Task_APP_CommissionTimerTask
                0x0000000004000700                os_Task_Tick_Task
                0x000000000400070c                os_Task_APP_ZPR_Light_Task
                0x0000000004000718                os_Task_APP_Commission_Task
                0x0000000004000724                os_Task_zps_taskZPS
                0x0000000004000730                u8AhiBaudRate.123768
                0x0000000004000734                s_prbMemberCheck.60995
                0x0000000004000738                s_prvErrorHook.60993
                0x000000000400073c                g_u8ZpsExpiryMaxCount
 .data.s_asAPduPool
                0x00000000040009b8       0x18 c:/NXP/bstudio_nxp/workspace/Custom_ZLL_Lights_someone42/MultiLight/Build/pdum_apdu.o
                0x00000000040009b8                pdum_apduZDP
                0x00000000040009b8                s_asAPduPool
                0x00000000040009c4                pdum_apduZCL
 *(.data.*)
                0x00000000040009d0                . = ALIGN (0x4)
                0x00000000040009d0                _ram_data_end = ABSOLUTE (.)

.bss            0x00000000040009d0     0x4634 load address 0x00000000000ae60c
                0x00000000040009d0                _bss_start = ABSOLUTE (.)
 *(.bss*)
 .bss           0x00000000040009d0     0x1128 C:\DOCUME~1\g\LOCALS~1\Temp\ccflNc42.ltrans0.ltrans.o
                0x00000000040009d0                psNextWake.61066
                0x00000000040009d4                s_bWakeTimerActive.61067
                0x00000000040009d5                s_ePowerMode.61068
                0x00000000040009d6                gu16NumberOfSegments.149365
                0x00000000040009d8                psPDM_Common
                0x00000000040009dc                u8MaxNpdu.61276
                0x00000000040009dd                u8Count.61275
                0x00000000040009e0                s_psNPduPoolEnd.61278
                0x00000000040009e4                s_psNPduPoolStart.61277
                0x00000000040009e8                s_psFreeListHead.61274
                0x00000000040009ec                s_hMutex.61273
                0x00000000040009f0                s_hMutex.61393
                0x00000000040009f4                s_asAPduPool.61392
                0x00000000040009f8                pfExtendedStatusCallBack.128123
                0x00000000040009fc                sScenesCustomData.3824
                0x0000000004000b1c                psAplDefaultZLLAPSLinkKey
                0x0000000004000b20                s_u32x.121422
                0x0000000004000b24                pfOptionsFilterCallback
                0x0000000004000b28                pfnHandleZllDeviceJoin
                0x0000000004000b2c                s_prExpireFn.150359
                0x0000000004000b30                s_hMutex.150358
                0x0000000004000b34                pvRxStore
                0x0000000004000b38                pvTxStore
                0x0000000004000b3c                g_pvAplHandle
                0x0000000004000b40                s_hMacMutex
                0x0000000004000b44                s_sDcfmIndMgr.150123
                0x0000000004000b4c                prAppMlmeGetBuffer
                0x0000000004000b50                prAppMlmeCallback
                0x0000000004000b54                psFreeMsgListHead
                0x0000000004000b58                psActiveMsgListHead
                0x0000000004000b5c                u8MiniMac_RunTimeOptions
                0x0000000004000b60                sReversedMacAddr.147561
                0x0000000004000b68                sThisDeviceMacAddr
                0x0000000004000b70                bTimerRegistered.9525.16025
                0x0000000004000b71                au8GroupsServerAttributeControlBits
                0x0000000004000b72                au8ScenesServerAttributeControlBits
                0x0000000004000b78                gZpsSetByProfile.64081
                0x0000000004000b79                bIntEnableFlag.148256
                0x0000000004000b7c                s_groupTablePdmStorage.3180
 .bss           0x0000000004001af8       0x18 C:\DOCUME~1\g\LOCALS~1\Temp\ccflNc42.ltrans1.ltrans.o
 .bss           0x0000000004001b10       0x40 C:\DOCUME~1\g\LOCALS~1\Temp\ccflNc42.ltrans3.ltrans.o
 .bss           0x0000000004001b50        0x8 C:\DOCUME~1\g\LOCALS~1\Temp\ccflNc42.ltrans4.ltrans.o
                0x0000000004001b50                vFlushFn.123712
                0x0000000004001b54                vPutchFn.123707
 .bss           0x0000000004001b58       0x40 C:\DOCUME~1\g\LOCALS~1\Temp\ccflNc42.ltrans5.ltrans.o
                0x0000000004001b58                bIgnoreBroadcast
 .bss           0x0000000004001b98        0x8 C:\DOCUME~1\g\LOCALS~1\Temp\ccflNc42.ltrans6.ltrans.o
 .bss           0x0000000004001ba0        0xc C:\DOCUME~1\g\LOCALS~1\Temp\ccflNc42.ltrans7.ltrans.o
                0x0000000004001ba0                a16NwkPdmRecordSizes
 .bss           0x0000000004001bac        0x8 C:\DOCUME~1\g\LOCALS~1\Temp\ccflNc42.ltrans8.ltrans.o
 .bss           0x0000000004001bb4        0x8 C:\DOCUME~1\g\LOCALS~1\Temp\ccflNc42.ltrans9.ltrans.o
 *fill*         0x0000000004001bbc        0x4 00
 .bss           0x0000000004001bc0      0x198 C:\DOCUME~1\g\LOCALS~1\Temp\ccflNc42.ltrans11.ltrans.o
                0x0000000004001bc0                psNwkDescTbl
                0x0000000004001bc4                u8NwkCount
                0x0000000004001bc5                u8NwkIdx
                0x0000000004001bc6                u8ChanIdx
                0x0000000004001bc7                state
                0x0000000004001bd7                RoundKey
                0x0000000004001cc8                sDstAddr
 .bss           0x0000000004001d58       0x28 C:\DOCUME~1\g\LOCALS~1\Temp\ccflNc42.ltrans12.ltrans.o
 .bss           0x0000000004001d80        0x1 C:\DOCUME~1\g\LOCALS~1\Temp\ccflNc42.ltrans13.ltrans.o
 *fill*         0x0000000004001d81        0x3 00
 .bss           0x0000000004001d84       0xa0 C:\DOCUME~1\g\LOCALS~1\Temp\ccflNc42.ltrans15.ltrans.o
                0x0000000004001d84                sMiniMacPhyPib
                0x0000000004001d88                aprTimerCallback
                0x0000000004001da8                au32TimerCounter
                0x0000000004001dc8                sMiniMacInternal
                0x0000000004001df4                s_psVsMcpsDcfmInd.81310
                0x0000000004001df8                s_psMacDcfmInd.81309
                0x0000000004001dfc                u32DataQueueCount
 .bss           0x0000000004001e24       0xa4 C:\DOCUME~1\g\LOCALS~1\Temp\ccflNc42.ltrans16.ltrans.o
                0x0000000004001e24                sMiniMacPib
                0x0000000004001ec0                bDefaultServerIgnoreHandleMgmtUpdate
                0x0000000004001ec4                pfOverrideProfile
 .bss           0x0000000004001ec8       0x48 C:\DOCUME~1\g\LOCALS~1\Temp\ccflNc42.ltrans18.ltrans.o
 .bss           0x0000000004001f10      0x454 C:\DOCUME~1\g\LOCALS~1\Temp\ccflNc42.ltrans20.ltrans.o
 .bss           0x0000000004002364       0x24 C:\DOCUME~1\g\LOCALS~1\Temp\ccflNc42.ltrans22.ltrans.o
                0x0000000004002364                apvAplPdmRecordsAddress
                0x000000000400237c                au16AplPdmRecordsSize
 .bss           0x0000000004002388      0xaa8 C:\DOCUME~1\g\LOCALS~1\Temp\ccflNc42.ltrans24.ltrans.o
                0x0000000004002388                sLightMono
                0x0000000004002828                sIdEffectMono
                0x0000000004002830                sLightRGB
                0x0000000004002e20                sIdEffectRGB
                0x0000000004002e2c                bOverheat
 .bss           0x0000000004002e30       0x1c C:\DOCUME~1\g\LOCALS~1\Temp\ccflNc42.ltrans26.ltrans.o
                0x0000000004002e30                prIntHandler.147934
                0x0000000004002e34                psTimerServerList
 .bss.initinboot
                0x0000000004002e4c        0x1 C:\DOCUME~1\g\LOCALS~1\Temp\ccflNc42.ltrans26.ltrans.o
 *fill*         0x0000000004002e4d        0x3 00
 .bss           0x0000000004002e50        0x8 C:\DOCUME~1\g\LOCALS~1\Temp\ccflNc42.ltrans27.ltrans.o
                0x0000000004002e50                psZCL_Common
                0x0000000004002e54                zps_psNwk
 .bss           0x0000000004002e58        0x8 C:\DOCUME~1\g\LOCALS~1\Temp\ccflNc42.ltrans28.ltrans.o
                0x0000000004002e58                s_u16ActivityCounter
 .bss           0x0000000004002e60        0x4 C:\DOCUME~1\g\LOCALS~1\Temp\ccflNc42.ltrans29.ltrans.o
                0x0000000004002e60                s_psCurrentTask.60989
 *fill*         0x0000000004002e64        0xc 00
 .bss           0x0000000004002e70     0x2150 C:\DOCUME~1\g\LOCALS~1\Temp\ccflNc42.ltrans30.ltrans.o
                0x0000000004002e70                s_sDefaultServerContext.3065
                0x0000000004002e74                s_sMgmtRtgServerContext.3003
                0x0000000004002e78                s_sPermitJoiningServerContext.3004
                0x0000000004002e7c                s_sMgmtNWKUpdateServerContext.3005
                0x0000000004002ebc                s_sMgmtLeaveServerContext.3064
                0x0000000004002ee4                s_sMgmtLqiServerContext.3063
                0x0000000004002ee8                s_sSimpleDescServerContext.3062
                0x0000000004002eec                s_sMatchDescServerContext.3061
                0x0000000004002ef0                s_sPowerDescServerContext.3060
                0x0000000004002ef4                s_sNodeDescServerContext.3059
                0x0000000004002ef8                s_sSystemServerDiscoveryServerContext.3058
                0x0000000004002efc                s_sIeeeAddrServerContext.3057
                0x0000000004002f00                s_sNwkAddrServerContext.3056
                0x0000000004002f04                s_sActiveEpServerContext.3055
                0x0000000004002f08                s_sZdoClientContext.3053
                0x0000000004002f08                s_sDeviceAnnceServerContext.3054
                0x0000000004002f10                s_u32LastExpiredTime.3223
                0x0000000004002f14                s_u32CompareTime.3222
                0x0000000004002f18                u32NewComputedWhiteMode.7224
                0x0000000004002f1c                atsLC_Calibration.7223
                0x0000000004002f30                bAccumulateModeFlag.148258
                0x0000000004002f32                u16AccumulatedADC
                0x0000000004002f34                au16PWMValues.8765
                0x0000000004002f3c                s_prvCurrentISR.60996
                0x0000000004002f40                u8AhiUart.123767
                0x0000000004002f42                au16TimerSettings.148671
                0x0000000004002f4c                au8PWMChannels.8764
                0x0000000004002f50                abPWMUpdated.8766
                0x0000000004002f54                sLI_Vars.7132
                0x0000000004002fd4                bIsOn.8769
                0x0000000004002fd8                s_u32CurrentPriorityMask.60988
                0x0000000004002fdc                s_u8OSLevelIPL.60992
                0x0000000004002fe0                s_asTasks.60991
                0x0000000004002fe4                s_u32PendingQueue.60990
                0x0000000004002fe8                u32ComputedWhiteMode
                0x0000000004002fec                pwrm_CPUContext
 .bss           0x0000000004004fc0        0x1 C:\DOCUME~1\g\LOCALS~1\Temp\ccflNc42.ltrans31.ltrans.o
                0x0000000004004fc0                bFlag_SaveScenesNVM
 *fill*         0x0000000004004fc1        0x3 00
 .bss.dontinitinboot
                0x0000000004004fc4       0x40 c:/NXP/bstudio_nxp/sdk/JN-SW-4168/Components/Library\libBoot_JN516x.a(ExceptionHandler.o)
                0x0000000004004fc4                isr_handlers
 *(.bss.*)
 *(.scommon*)
 *(.scommon.*)
 *(COMMON)
                0x0000000004005004                . = ALIGN (0x4)
                0x0000000004005004                _bss_end = ABSOLUTE (.)

.heap           0x0000000004005004      0x3e8 load address 0x00000000000b2c40
                0x0000000004005004                _heap_start = ABSOLUTE (.)
                0x00000000040053ec                . = (. + __minimum_heap_size)
 *fill*         0x0000000004005004      0x3e8 00

.stack          0x0000000004007060      0xfa0 load address 0x00000000000b4c9c
                0x0000000004007060                _heap_end = ABSOLUTE (.)
                0x0000000004007060                _stack_low_water_mark = ABSOLUTE (.)
                0x0000000004008000                . = (. + __stack_size)
 *fill*         0x0000000004007060      0xfa0 00

.test           0x00000000000ae60c        0x1
                0x00000000000ae60c        0x1 BYTE 0xff
                0x00000000000adc88                _flash_data_start = LOADADDR (.data)
                0x0000000000000984                _ram_data_len = (((_ram_data_end - _ram_data_start) + 0x3) & 0xfffffffffffffffc)
                0x0000000000004634                _bss_len = (((_bss_end - _bss_start) + 0x3) & 0xfffffffffffffffc)
                0x000000000002e60c                _image_len = ((((_flash_end - _flash_start) + _ram_data_len) + 0x3) & 0xfffffffffffffffc)
                0x0000000004008000                _ram_top = (ABSOLUTE (ORIGIN (ram)) + 0x7fb4)
                0x0000000004008000                ram_top = (ABSOLUTE (ORIGIN (ram)) + 0x7fb4)
                0x0000000001001580                _app_ram_start = 0x1001580
                0x0000000004000134                PROVIDE (_heap_location, u32HeapStart)
                0x0000000004000134                PROVIDE (heap_location, u32HeapStart)
OUTPUT(c:/NXP/bstudio_nxp/workspace/Custom_ZLL_Lights_someone42/MultiLight/Build/MultiLight_JN5169_JN516X_RGBMini.elf elf32-ba)

.comment        0x0000000000000000       0x11
 .comment       0x0000000000000000       0x12 C:\DOCUME~1\g\LOCALS~1\Temp\ccflNc42.ltrans0.ltrans.o
 .comment       0x0000000000000000       0x12 C:\DOCUME~1\g\LOCALS~1\Temp\ccflNc42.ltrans1.ltrans.o
 .comment       0x0000000000000000       0x12 C:\DOCUME~1\g\LOCALS~1\Temp\ccflNc42.ltrans2.ltrans.o
 .comment       0x0000000000000000       0x12 C:\DOCUME~1\g\LOCALS~1\Temp\ccflNc42.ltrans3.ltrans.o
 .comment       0x0000000000000000       0x12 C:\DOCUME~1\g\LOCALS~1\Temp\ccflNc42.ltrans4.ltrans.o
 .comment       0x0000000000000000       0x12 C:\DOCUME~1\g\LOCALS~1\Temp\ccflNc42.ltrans5.ltrans.o
 .comment       0x0000000000000000       0x12 C:\DOCUME~1\g\LOCALS~1\Temp\ccflNc42.ltrans6.ltrans.o
 .comment       0x0000000000000000       0x12 C:\DOCUME~1\g\LOCALS~1\Temp\ccflNc42.ltrans7.ltrans.o
 .comment       0x0000000000000000       0x12 C:\DOCUME~1\g\LOCALS~1\Temp\ccflNc42.ltrans8.ltrans.o
 .comment       0x0000000000000000       0x12 C:\DOCUME~1\g\LOCALS~1\Temp\ccflNc42.ltrans9.ltrans.o
 .comment       0x0000000000000000       0x12 C:\DOCUME~1\g\LOCALS~1\Temp\ccflNc42.ltrans10.ltrans.o
 .comment       0x0000000000000000       0x12 C:\DOCUME~1\g\LOCALS~1\Temp\ccflNc42.ltrans11.ltrans.o
 .comment       0x0000000000000000       0x12 C:\DOCUME~1\g\LOCALS~1\Temp\ccflNc42.ltrans12.ltrans.o
 .comment       0x0000000000000000       0x12 C:\DOCUME~1\g\LOCALS~1\Temp\ccflNc42.ltrans13.ltrans.o
 .comment       0x0000000000000000       0x12 C:\DOCUME~1\g\LOCALS~1\Temp\ccflNc42.ltrans14.ltrans.o
 .comment       0x0000000000000000       0x12 C:\DOCUME~1\g\LOCALS~1\Temp\ccflNc42.ltrans15.ltrans.o
 .comment       0x0000000000000000       0x12 C:\DOCUME~1\g\LOCALS~1\Temp\ccflNc42.ltrans16.ltrans.o
 .comment       0x0000000000000000       0x12 C:\DOCUME~1\g\LOCALS~1\Temp\ccflNc42.ltrans17.ltrans.o
 .comment       0x0000000000000000       0x12 C:\DOCUME~1\g\LOCALS~1\Temp\ccflNc42.ltrans18.ltrans.o
 .comment       0x0000000000000000       0x12 C:\DOCUME~1\g\LOCALS~1\Temp\ccflNc42.ltrans19.ltrans.o
 .comment       0x0000000000000000       0x12 C:\DOCUME~1\g\LOCALS~1\Temp\ccflNc42.ltrans20.ltrans.o
 .comment       0x0000000000000000       0x12 C:\DOCUME~1\g\LOCALS~1\Temp\ccflNc42.ltrans21.ltrans.o
 .comment       0x0000000000000000       0x12 C:\DOCUME~1\g\LOCALS~1\Temp\ccflNc42.ltrans22.ltrans.o
 .comment       0x0000000000000000       0x12 C:\DOCUME~1\g\LOCALS~1\Temp\ccflNc42.ltrans23.ltrans.o
 .comment       0x0000000000000000       0x12 C:\DOCUME~1\g\LOCALS~1\Temp\ccflNc42.ltrans24.ltrans.o
 .comment       0x0000000000000000       0x12 C:\DOCUME~1\g\LOCALS~1\Temp\ccflNc42.ltrans25.ltrans.o
 .comment       0x0000000000000000       0x12 C:\DOCUME~1\g\LOCALS~1\Temp\ccflNc42.ltrans26.ltrans.o
 .comment       0x0000000000000000       0x12 C:\DOCUME~1\g\LOCALS~1\Temp\ccflNc42.ltrans27.ltrans.o
 .comment       0x0000000000000000       0x12 C:\DOCUME~1\g\LOCALS~1\Temp\ccflNc42.ltrans28.ltrans.o
 .comment       0x0000000000000000       0x12 C:\DOCUME~1\g\LOCALS~1\Temp\ccflNc42.ltrans29.ltrans.o
 .comment       0x0000000000000000       0x12 C:\DOCUME~1\g\LOCALS~1\Temp\ccflNc42.ltrans30.ltrans.o
 .comment       0x0000000000000000       0x12 C:\DOCUME~1\g\LOCALS~1\Temp\ccflNc42.ltrans31.ltrans.o
 .comment       0x0000000000000000       0x12 c:/nxp/bstudio_nxp/sdk/tools/ba-elf-ba2-r36379/bin/../lib/gcc/ba-elf/4.7.4/../../../../ba-elf/lib/mcpu_jn51xx_sizeopt\libc.a(lib_a-memcmp.o)
 .comment       0x0000000000000000       0x12 c:/nxp/bstudio_nxp/sdk/tools/ba-elf-ba2-r36379/bin/../lib/gcc/ba-elf/4.7.4/../../../../ba-elf/lib/mcpu_jn51xx_sizeopt\libc.a(lib_a-memcpy.o)
 .comment       0x0000000000000000       0x12 c:/nxp/bstudio_nxp/sdk/tools/ba-elf-ba2-r36379/bin/../lib/gcc/ba-elf/4.7.4/../../../../ba-elf/lib/mcpu_jn51xx_sizeopt\libc.a(lib_a-memset.o)
 .comment       0x0000000000000000       0x12 c:/nxp/bstudio_nxp/sdk/tools/ba-elf-ba2-r36379/bin/../lib/gcc/ba-elf/4.7.4/../../../../ba-elf/lib/mcpu_jn51xx_sizeopt\libc.a(lib_a-strlen.o)
 .comment       0x0000000000000000       0x12 c:/nxp/bstudio_nxp/sdk/tools/ba-elf-ba2-r36379/bin/../lib/gcc/ba-elf/4.7.4/../../../../ba-elf/lib/mcpu_jn51xx_sizeopt\libc.a(lib_a-strncpy.o)
 .comment       0x0000000000000000       0x12 c:/nxp/bstudio_nxp/sdk/tools/ba-elf-ba2-r36379/bin/../lib/gcc/ba-elf/4.7.4/mcpu_jn51xx_sizeopt\libgcc.a(_fixunsdfsi.o)
 .comment       0x0000000000000000       0x12 c:/nxp/bstudio_nxp/sdk/tools/ba-elf-ba2-r36379/bin/../lib/gcc/ba-elf/4.7.4/mcpu_jn51xx_sizeopt\libgcc.a(_divdi3.o)
 .comment       0x0000000000000000       0x12 c:/nxp/bstudio_nxp/sdk/tools/ba-elf-ba2-r36379/bin/../lib/gcc/ba-elf/4.7.4/mcpu_jn51xx_sizeopt\libgcc.a(_udivdi3.o)
 .comment       0x0000000000000000       0x12 c:/nxp/bstudio_nxp/sdk/tools/ba-elf-ba2-r36379/bin/../lib/gcc/ba-elf/4.7.4/mcpu_jn51xx_sizeopt\libgcc.a(addsf3.o)
 .comment       0x0000000000000000       0x12 c:/nxp/bstudio_nxp/sdk/tools/ba-elf-ba2-r36379/bin/../lib/gcc/ba-elf/4.7.4/mcpu_jn51xx_sizeopt\libgcc.a(divsf3.o)
 .comment       0x0000000000000000       0x12 c:/nxp/bstudio_nxp/sdk/tools/ba-elf-ba2-r36379/bin/../lib/gcc/ba-elf/4.7.4/mcpu_jn51xx_sizeopt\libgcc.a(eqsf2.o)
 .comment       0x0000000000000000       0x12 c:/nxp/bstudio_nxp/sdk/tools/ba-elf-ba2-r36379/bin/../lib/gcc/ba-elf/4.7.4/mcpu_jn51xx_sizeopt\libgcc.a(gesf2.o)
 .comment       0x0000000000000000       0x12 c:/nxp/bstudio_nxp/sdk/tools/ba-elf-ba2-r36379/bin/../lib/gcc/ba-elf/4.7.4/mcpu_jn51xx_sizeopt\libgcc.a(lesf2.o)
 .comment       0x0000000000000000       0x12 c:/nxp/bstudio_nxp/sdk/tools/ba-elf-ba2-r36379/bin/../lib/gcc/ba-elf/4.7.4/mcpu_jn51xx_sizeopt\libgcc.a(mulsf3.o)
 .comment       0x0000000000000000       0x12 c:/nxp/bstudio_nxp/sdk/tools/ba-elf-ba2-r36379/bin/../lib/gcc/ba-elf/4.7.4/mcpu_jn51xx_sizeopt\libgcc.a(subsf3.o)
 .comment       0x0000000000000000       0x12 c:/nxp/bstudio_nxp/sdk/tools/ba-elf-ba2-r36379/bin/../lib/gcc/ba-elf/4.7.4/mcpu_jn51xx_sizeopt\libgcc.a(fixsfsi.o)
 .comment       0x0000000000000000       0x12 c:/nxp/bstudio_nxp/sdk/tools/ba-elf-ba2-r36379/bin/../lib/gcc/ba-elf/4.7.4/mcpu_jn51xx_sizeopt\libgcc.a(floatunsisf.o)
 .comment       0x0000000000000000       0x12 c:/nxp/bstudio_nxp/sdk/tools/ba-elf-ba2-r36379/bin/../lib/gcc/ba-elf/4.7.4/mcpu_jn51xx_sizeopt\libgcc.a(adddf3.o)
 .comment       0x0000000000000000       0x12 c:/nxp/bstudio_nxp/sdk/tools/ba-elf-ba2-r36379/bin/../lib/gcc/ba-elf/4.7.4/mcpu_jn51xx_sizeopt\libgcc.a(divdf3.o)
 .comment       0x0000000000000000       0x12 c:/nxp/bstudio_nxp/sdk/tools/ba-elf-ba2-r36379/bin/../lib/gcc/ba-elf/4.7.4/mcpu_jn51xx_sizeopt\libgcc.a(gedf2.o)
 .comment       0x0000000000000000       0x12 c:/nxp/bstudio_nxp/sdk/tools/ba-elf-ba2-r36379/bin/../lib/gcc/ba-elf/4.7.4/mcpu_jn51xx_sizeopt\libgcc.a(muldf3.o)
 .comment       0x0000000000000000       0x12 c:/nxp/bstudio_nxp/sdk/tools/ba-elf-ba2-r36379/bin/../lib/gcc/ba-elf/4.7.4/mcpu_jn51xx_sizeopt\libgcc.a(subdf3.o)
 .comment       0x0000000000000000       0x12 c:/nxp/bstudio_nxp/sdk/tools/ba-elf-ba2-r36379/bin/../lib/gcc/ba-elf/4.7.4/mcpu_jn51xx_sizeopt\libgcc.a(fixdfsi.o)
 .comment       0x0000000000000000       0x12 c:/nxp/bstudio_nxp/sdk/tools/ba-elf-ba2-r36379/bin/../lib/gcc/ba-elf/4.7.4/mcpu_jn51xx_sizeopt\libgcc.a(extendsfdf2.o)
 .comment       0x0000000000000000       0x12 c:/nxp/bstudio_nxp/sdk/tools/ba-elf-ba2-r36379/bin/../lib/gcc/ba-elf/4.7.4/mcpu_jn51xx_sizeopt\libgcc.a(truncdfsf2.o)
 .comment       0x0000000000000000       0x11 c:/NXP/bstudio_nxp/sdk/JN-SW-4168/Components/Library\libMicroSpecific_JN516x.a(MicroSyscall_ba.o)
                                         0x12 (size before relaxing)
 .comment       0x0000000000000000       0x12 c:/nxp/bstudio_nxp/sdk/tools/ba-elf-ba2-r36379/bin/../lib/gcc/ba-elf/4.7.4/../../../../ba-elf/lib/mcpu_jn51xx_sizeopt\libm.a(lib_a-s_floor.o)

.debug_info     0x0000000000000000     0x48cb
 .debug_info    0x0000000000000000       0xf3 c:/nxp/bstudio_nxp/sdk/tools/ba-elf-ba2-r36379/bin/../lib/gcc/ba-elf/4.7.4/../../../../ba-elf/lib/mcpu_jn51xx_sizeopt\libc.a(lib_a-memcmp.o)
 .debug_info    0x00000000000000f3      0x106 c:/nxp/bstudio_nxp/sdk/tools/ba-elf-ba2-r36379/bin/../lib/gcc/ba-elf/4.7.4/../../../../ba-elf/lib/mcpu_jn51xx_sizeopt\libc.a(lib_a-memcpy.o)
 .debug_info    0x00000000000001f9       0xd7 c:/nxp/bstudio_nxp/sdk/tools/ba-elf-ba2-r36379/bin/../lib/gcc/ba-elf/4.7.4/../../../../ba-elf/lib/mcpu_jn51xx_sizeopt\libc.a(lib_a-memset.o)
 .debug_info    0x00000000000002d0       0xc8 c:/nxp/bstudio_nxp/sdk/tools/ba-elf-ba2-r36379/bin/../lib/gcc/ba-elf/4.7.4/../../../../ba-elf/lib/mcpu_jn51xx_sizeopt\libc.a(lib_a-strlen.o)
 .debug_info    0x0000000000000398       0xf9 c:/nxp/bstudio_nxp/sdk/tools/ba-elf-ba2-r36379/bin/../lib/gcc/ba-elf/4.7.4/../../../../ba-elf/lib/mcpu_jn51xx_sizeopt\libc.a(lib_a-strncpy.o)
 .debug_info    0x0000000000000491       0xb4 c:/nxp/bstudio_nxp/sdk/tools/ba-elf-ba2-r36379/bin/../lib/gcc/ba-elf/4.7.4/mcpu_jn51xx_sizeopt\libgcc.a(__udivsi3.o)
 .debug_info    0x0000000000000545       0xb4 c:/nxp/bstudio_nxp/sdk/tools/ba-elf-ba2-r36379/bin/../lib/gcc/ba-elf/4.7.4/mcpu_jn51xx_sizeopt\libgcc.a(__divsi3.o)
 .debug_info    0x00000000000005f9       0xb4 c:/nxp/bstudio_nxp/sdk/tools/ba-elf-ba2-r36379/bin/../lib/gcc/ba-elf/4.7.4/mcpu_jn51xx_sizeopt\libgcc.a(__umodsi3.o)
 .debug_info    0x00000000000006ad       0xb4 c:/nxp/bstudio_nxp/sdk/tools/ba-elf-ba2-r36379/bin/../lib/gcc/ba-elf/4.7.4/mcpu_jn51xx_sizeopt\libgcc.a(__modsi3.o)
 .debug_info    0x0000000000000761       0xd3 c:/nxp/bstudio_nxp/sdk/tools/ba-elf-ba2-r36379/bin/../lib/gcc/ba-elf/4.7.4/mcpu_jn51xx_sizeopt\libgcc.a(_fixunsdfsi.o)
 .debug_info    0x0000000000000834      0x68a c:/nxp/bstudio_nxp/sdk/tools/ba-elf-ba2-r36379/bin/../lib/gcc/ba-elf/4.7.4/mcpu_jn51xx_sizeopt\libgcc.a(_divdi3.o)
 .debug_info    0x0000000000000ebe      0x648 c:/nxp/bstudio_nxp/sdk/tools/ba-elf-ba2-r36379/bin/../lib/gcc/ba-elf/4.7.4/mcpu_jn51xx_sizeopt\libgcc.a(_udivdi3.o)
 .debug_info    0x0000000000001506      0x2b5 c:/nxp/bstudio_nxp/sdk/tools/ba-elf-ba2-r36379/bin/../lib/gcc/ba-elf/4.7.4/mcpu_jn51xx_sizeopt\libgcc.a(addsf3.o)
 .debug_info    0x00000000000017bb      0x2b1 c:/nxp/bstudio_nxp/sdk/tools/ba-elf-ba2-r36379/bin/../lib/gcc/ba-elf/4.7.4/mcpu_jn51xx_sizeopt\libgcc.a(divsf3.o)
 .debug_info    0x0000000000001a6c      0x1c6 c:/nxp/bstudio_nxp/sdk/tools/ba-elf-ba2-r36379/bin/../lib/gcc/ba-elf/4.7.4/mcpu_jn51xx_sizeopt\libgcc.a(eqsf2.o)
 .debug_info    0x0000000000001c32      0x1e9 c:/nxp/bstudio_nxp/sdk/tools/ba-elf-ba2-r36379/bin/../lib/gcc/ba-elf/4.7.4/mcpu_jn51xx_sizeopt\libgcc.a(gesf2.o)
 .debug_info    0x0000000000001e1b      0x1ec c:/nxp/bstudio_nxp/sdk/tools/ba-elf-ba2-r36379/bin/../lib/gcc/ba-elf/4.7.4/mcpu_jn51xx_sizeopt\libgcc.a(lesf2.o)
 .debug_info    0x0000000000002007      0x302 c:/nxp/bstudio_nxp/sdk/tools/ba-elf-ba2-r36379/bin/../lib/gcc/ba-elf/4.7.4/mcpu_jn51xx_sizeopt\libgcc.a(mulsf3.o)
 .debug_info    0x0000000000002309      0x2b5 c:/nxp/bstudio_nxp/sdk/tools/ba-elf-ba2-r36379/bin/../lib/gcc/ba-elf/4.7.4/mcpu_jn51xx_sizeopt\libgcc.a(subsf3.o)
 .debug_info    0x00000000000025be      0x19d c:/nxp/bstudio_nxp/sdk/tools/ba-elf-ba2-r36379/bin/../lib/gcc/ba-elf/4.7.4/mcpu_jn51xx_sizeopt\libgcc.a(fixsfsi.o)
 .debug_info    0x000000000000275b      0x1af c:/nxp/bstudio_nxp/sdk/tools/ba-elf-ba2-r36379/bin/../lib/gcc/ba-elf/4.7.4/mcpu_jn51xx_sizeopt\libgcc.a(floatunsisf.o)
 .debug_info    0x000000000000290a      0x4b2 c:/nxp/bstudio_nxp/sdk/tools/ba-elf-ba2-r36379/bin/../lib/gcc/ba-elf/4.7.4/mcpu_jn51xx_sizeopt\libgcc.a(adddf3.o)
 .debug_info    0x0000000000002dbc      0x5c5 c:/nxp/bstudio_nxp/sdk/tools/ba-elf-ba2-r36379/bin/../lib/gcc/ba-elf/4.7.4/mcpu_jn51xx_sizeopt\libgcc.a(divdf3.o)
 .debug_info    0x0000000000003381      0x20b c:/nxp/bstudio_nxp/sdk/tools/ba-elf-ba2-r36379/bin/../lib/gcc/ba-elf/4.7.4/mcpu_jn51xx_sizeopt\libgcc.a(gedf2.o)
 .debug_info    0x000000000000358c      0x5c7 c:/nxp/bstudio_nxp/sdk/tools/ba-elf-ba2-r36379/bin/../lib/gcc/ba-elf/4.7.4/mcpu_jn51xx_sizeopt\libgcc.a(muldf3.o)
 .debug_info    0x0000000000003b53      0x4b2 c:/nxp/bstudio_nxp/sdk/tools/ba-elf-ba2-r36379/bin/../lib/gcc/ba-elf/4.7.4/mcpu_jn51xx_sizeopt\libgcc.a(subdf3.o)
 .debug_info    0x0000000000004005      0x1b7 c:/nxp/bstudio_nxp/sdk/tools/ba-elf-ba2-r36379/bin/../lib/gcc/ba-elf/4.7.4/mcpu_jn51xx_sizeopt\libgcc.a(fixdfsi.o)
 .debug_info    0x00000000000041bc      0x262 c:/nxp/bstudio_nxp/sdk/tools/ba-elf-ba2-r36379/bin/../lib/gcc/ba-elf/4.7.4/mcpu_jn51xx_sizeopt\libgcc.a(extendsfdf2.o)
 .debug_info    0x000000000000441e      0x246 c:/nxp/bstudio_nxp/sdk/tools/ba-elf-ba2-r36379/bin/../lib/gcc/ba-elf/4.7.4/mcpu_jn51xx_sizeopt\libgcc.a(truncdfsf2.o)
 .debug_info    0x0000000000004664       0xb6 c:/NXP/bstudio_nxp/sdk/JN-SW-4168/Components/Library\libBoot_JN516x.a(ExceptionHandler.o)
 .debug_info    0x000000000000471a      0x1b1 c:/nxp/bstudio_nxp/sdk/tools/ba-elf-ba2-r36379/bin/../lib/gcc/ba-elf/4.7.4/../../../../ba-elf/lib/mcpu_jn51xx_sizeopt\libm.a(lib_a-s_floor.o)

.debug_abbrev   0x0000000000000000     0x1b2e
 .debug_abbrev  0x0000000000000000       0x8e c:/nxp/bstudio_nxp/sdk/tools/ba-elf-ba2-r36379/bin/../lib/gcc/ba-elf/4.7.4/../../../../ba-elf/lib/mcpu_jn51xx_sizeopt\libc.a(lib_a-memcmp.o)
 .debug_abbrev  0x000000000000008e       0xa4 c:/nxp/bstudio_nxp/sdk/tools/ba-elf-ba2-r36379/bin/../lib/gcc/ba-elf/4.7.4/../../../../ba-elf/lib/mcpu_jn51xx_sizeopt\libc.a(lib_a-memcpy.o)
 .debug_abbrev  0x0000000000000132       0x8e c:/nxp/bstudio_nxp/sdk/tools/ba-elf-ba2-r36379/bin/../lib/gcc/ba-elf/4.7.4/../../../../ba-elf/lib/mcpu_jn51xx_sizeopt\libc.a(lib_a-memset.o)
 .debug_abbrev  0x00000000000001c0       0x7f c:/nxp/bstudio_nxp/sdk/tools/ba-elf-ba2-r36379/bin/../lib/gcc/ba-elf/4.7.4/../../../../ba-elf/lib/mcpu_jn51xx_sizeopt\libc.a(lib_a-strlen.o)
 .debug_abbrev  0x000000000000023f       0x8e c:/nxp/bstudio_nxp/sdk/tools/ba-elf-ba2-r36379/bin/../lib/gcc/ba-elf/4.7.4/../../../../ba-elf/lib/mcpu_jn51xx_sizeopt\libc.a(lib_a-strncpy.o)
 .debug_abbrev  0x00000000000002cd       0x14 c:/nxp/bstudio_nxp/sdk/tools/ba-elf-ba2-r36379/bin/../lib/gcc/ba-elf/4.7.4/mcpu_jn51xx_sizeopt\libgcc.a(__udivsi3.o)
 .debug_abbrev  0x00000000000002e1       0x14 c:/nxp/bstudio_nxp/sdk/tools/ba-elf-ba2-r36379/bin/../lib/gcc/ba-elf/4.7.4/mcpu_jn51xx_sizeopt\libgcc.a(__divsi3.o)
 .debug_abbrev  0x00000000000002f5       0x14 c:/nxp/bstudio_nxp/sdk/tools/ba-elf-ba2-r36379/bin/../lib/gcc/ba-elf/4.7.4/mcpu_jn51xx_sizeopt\libgcc.a(__umodsi3.o)
 .debug_abbrev  0x0000000000000309       0x14 c:/nxp/bstudio_nxp/sdk/tools/ba-elf-ba2-r36379/bin/../lib/gcc/ba-elf/4.7.4/mcpu_jn51xx_sizeopt\libgcc.a(__modsi3.o)
 .debug_abbrev  0x000000000000031d       0x60 c:/nxp/bstudio_nxp/sdk/tools/ba-elf-ba2-r36379/bin/../lib/gcc/ba-elf/4.7.4/mcpu_jn51xx_sizeopt\libgcc.a(_fixunsdfsi.o)
 .debug_abbrev  0x000000000000037d      0x16e c:/nxp/bstudio_nxp/sdk/tools/ba-elf-ba2-r36379/bin/../lib/gcc/ba-elf/4.7.4/mcpu_jn51xx_sizeopt\libgcc.a(_divdi3.o)
 .debug_abbrev  0x00000000000004eb      0x15d c:/nxp/bstudio_nxp/sdk/tools/ba-elf-ba2-r36379/bin/../lib/gcc/ba-elf/4.7.4/mcpu_jn51xx_sizeopt\libgcc.a(_udivdi3.o)
 .debug_abbrev  0x0000000000000648      0x133 c:/nxp/bstudio_nxp/sdk/tools/ba-elf-ba2-r36379/bin/../lib/gcc/ba-elf/4.7.4/mcpu_jn51xx_sizeopt\libgcc.a(addsf3.o)
 .debug_abbrev  0x000000000000077b      0x126 c:/nxp/bstudio_nxp/sdk/tools/ba-elf-ba2-r36379/bin/../lib/gcc/ba-elf/4.7.4/mcpu_jn51xx_sizeopt\libgcc.a(divsf3.o)
 .debug_abbrev  0x00000000000008a1      0x11b c:/nxp/bstudio_nxp/sdk/tools/ba-elf-ba2-r36379/bin/../lib/gcc/ba-elf/4.7.4/mcpu_jn51xx_sizeopt\libgcc.a(eqsf2.o)
 .debug_abbrev  0x00000000000009bc      0x12a c:/nxp/bstudio_nxp/sdk/tools/ba-elf-ba2-r36379/bin/../lib/gcc/ba-elf/4.7.4/mcpu_jn51xx_sizeopt\libgcc.a(gesf2.o)
 .debug_abbrev  0x0000000000000ae6      0x12a c:/nxp/bstudio_nxp/sdk/tools/ba-elf-ba2-r36379/bin/../lib/gcc/ba-elf/4.7.4/mcpu_jn51xx_sizeopt\libgcc.a(lesf2.o)
 .debug_abbrev  0x0000000000000c10      0x12d c:/nxp/bstudio_nxp/sdk/tools/ba-elf-ba2-r36379/bin/../lib/gcc/ba-elf/4.7.4/mcpu_jn51xx_sizeopt\libgcc.a(mulsf3.o)
 .debug_abbrev  0x0000000000000d3d      0x133 c:/nxp/bstudio_nxp/sdk/tools/ba-elf-ba2-r36379/bin/../lib/gcc/ba-elf/4.7.4/mcpu_jn51xx_sizeopt\libgcc.a(subsf3.o)
 .debug_abbrev  0x0000000000000e70      0x12c c:/nxp/bstudio_nxp/sdk/tools/ba-elf-ba2-r36379/bin/../lib/gcc/ba-elf/4.7.4/mcpu_jn51xx_sizeopt\libgcc.a(fixsfsi.o)
 .debug_abbrev  0x0000000000000f9c      0x11b c:/nxp/bstudio_nxp/sdk/tools/ba-elf-ba2-r36379/bin/../lib/gcc/ba-elf/4.7.4/mcpu_jn51xx_sizeopt\libgcc.a(floatunsisf.o)
 .debug_abbrev  0x00000000000010b7      0x133 c:/nxp/bstudio_nxp/sdk/tools/ba-elf-ba2-r36379/bin/../lib/gcc/ba-elf/4.7.4/mcpu_jn51xx_sizeopt\libgcc.a(adddf3.o)
 .debug_abbrev  0x00000000000011ea      0x12f c:/nxp/bstudio_nxp/sdk/tools/ba-elf-ba2-r36379/bin/../lib/gcc/ba-elf/4.7.4/mcpu_jn51xx_sizeopt\libgcc.a(divdf3.o)
 .debug_abbrev  0x0000000000001319      0x137 c:/nxp/bstudio_nxp/sdk/tools/ba-elf-ba2-r36379/bin/../lib/gcc/ba-elf/4.7.4/mcpu_jn51xx_sizeopt\libgcc.a(gedf2.o)
 .debug_abbrev  0x0000000000001450      0x141 c:/nxp/bstudio_nxp/sdk/tools/ba-elf-ba2-r36379/bin/../lib/gcc/ba-elf/4.7.4/mcpu_jn51xx_sizeopt\libgcc.a(muldf3.o)
 .debug_abbrev  0x0000000000001591      0x133 c:/nxp/bstudio_nxp/sdk/tools/ba-elf-ba2-r36379/bin/../lib/gcc/ba-elf/4.7.4/mcpu_jn51xx_sizeopt\libgcc.a(subdf3.o)
 .debug_abbrev  0x00000000000016c4      0x12a c:/nxp/bstudio_nxp/sdk/tools/ba-elf-ba2-r36379/bin/../lib/gcc/ba-elf/4.7.4/mcpu_jn51xx_sizeopt\libgcc.a(fixdfsi.o)
 .debug_abbrev  0x00000000000017ee      0x126 c:/nxp/bstudio_nxp/sdk/tools/ba-elf-ba2-r36379/bin/../lib/gcc/ba-elf/4.7.4/mcpu_jn51xx_sizeopt\libgcc.a(extendsfdf2.o)
 .debug_abbrev  0x0000000000001914      0x11b c:/nxp/bstudio_nxp/sdk/tools/ba-elf-ba2-r36379/bin/../lib/gcc/ba-elf/4.7.4/mcpu_jn51xx_sizeopt\libgcc.a(truncdfsf2.o)
 .debug_abbrev  0x0000000000001a2f       0x14 c:/NXP/bstudio_nxp/sdk/JN-SW-4168/Components/Library\libBoot_JN516x.a(ExceptionHandler.o)
 .debug_abbrev  0x0000000000001a43       0xeb c:/nxp/bstudio_nxp/sdk/tools/ba-elf-ba2-r36379/bin/../lib/gcc/ba-elf/4.7.4/../../../../ba-elf/lib/mcpu_jn51xx_sizeopt\libm.a(lib_a-s_floor.o)

.debug_loc      0x0000000000000000     0x81c8
 .debug_loc     0x0000000000000000       0x73 c:/nxp/bstudio_nxp/sdk/tools/ba-elf-ba2-r36379/bin/../lib/gcc/ba-elf/4.7.4/../../../../ba-elf/lib/mcpu_jn51xx_sizeopt\libc.a(lib_a-memcmp.o)
 .debug_loc     0x0000000000000073       0x39 c:/nxp/bstudio_nxp/sdk/tools/ba-elf-ba2-r36379/bin/../lib/gcc/ba-elf/4.7.4/../../../../ba-elf/lib/mcpu_jn51xx_sizeopt\libc.a(lib_a-memcpy.o)
 .debug_loc     0x00000000000000ac       0x3f c:/nxp/bstudio_nxp/sdk/tools/ba-elf-ba2-r36379/bin/../lib/gcc/ba-elf/4.7.4/../../../../ba-elf/lib/mcpu_jn51xx_sizeopt\libc.a(lib_a-memset.o)
 .debug_loc     0x00000000000000eb       0x3f c:/nxp/bstudio_nxp/sdk/tools/ba-elf-ba2-r36379/bin/../lib/gcc/ba-elf/4.7.4/../../../../ba-elf/lib/mcpu_jn51xx_sizeopt\libc.a(lib_a-strlen.o)
 .debug_loc     0x000000000000012a       0x93 c:/nxp/bstudio_nxp/sdk/tools/ba-elf-ba2-r36379/bin/../lib/gcc/ba-elf/4.7.4/../../../../ba-elf/lib/mcpu_jn51xx_sizeopt\libc.a(lib_a-strncpy.o)
 .debug_loc     0x00000000000001bd       0x48 c:/nxp/bstudio_nxp/sdk/tools/ba-elf-ba2-r36379/bin/../lib/gcc/ba-elf/4.7.4/mcpu_jn51xx_sizeopt\libgcc.a(_fixunsdfsi.o)
 .debug_loc     0x0000000000000205      0xe52 c:/nxp/bstudio_nxp/sdk/tools/ba-elf-ba2-r36379/bin/../lib/gcc/ba-elf/4.7.4/mcpu_jn51xx_sizeopt\libgcc.a(_divdi3.o)
 .debug_loc     0x0000000000001057      0xa7b c:/nxp/bstudio_nxp/sdk/tools/ba-elf-ba2-r36379/bin/../lib/gcc/ba-elf/4.7.4/mcpu_jn51xx_sizeopt\libgcc.a(_udivdi3.o)
 .debug_loc     0x0000000000001ad2      0x8d5 c:/nxp/bstudio_nxp/sdk/tools/ba-elf-ba2-r36379/bin/../lib/gcc/ba-elf/4.7.4/mcpu_jn51xx_sizeopt\libgcc.a(addsf3.o)
 .debug_loc     0x00000000000023a7      0x498 c:/nxp/bstudio_nxp/sdk/tools/ba-elf-ba2-r36379/bin/../lib/gcc/ba-elf/4.7.4/mcpu_jn51xx_sizeopt\libgcc.a(divsf3.o)
 .debug_loc     0x000000000000283f       0xc2 c:/nxp/bstudio_nxp/sdk/tools/ba-elf-ba2-r36379/bin/../lib/gcc/ba-elf/4.7.4/mcpu_jn51xx_sizeopt\libgcc.a(eqsf2.o)
 .debug_loc     0x0000000000002901      0x15e c:/nxp/bstudio_nxp/sdk/tools/ba-elf-ba2-r36379/bin/../lib/gcc/ba-elf/4.7.4/mcpu_jn51xx_sizeopt\libgcc.a(gesf2.o)
 .debug_loc     0x0000000000002a5f      0x10f c:/nxp/bstudio_nxp/sdk/tools/ba-elf-ba2-r36379/bin/../lib/gcc/ba-elf/4.7.4/mcpu_jn51xx_sizeopt\libgcc.a(lesf2.o)
 .debug_loc     0x0000000000002b6e      0x4a6 c:/nxp/bstudio_nxp/sdk/tools/ba-elf-ba2-r36379/bin/../lib/gcc/ba-elf/4.7.4/mcpu_jn51xx_sizeopt\libgcc.a(mulsf3.o)
 .debug_loc     0x0000000000003014      0x957 c:/nxp/bstudio_nxp/sdk/tools/ba-elf-ba2-r36379/bin/../lib/gcc/ba-elf/4.7.4/mcpu_jn51xx_sizeopt\libgcc.a(subsf3.o)
 .debug_loc     0x000000000000396b       0x85 c:/nxp/bstudio_nxp/sdk/tools/ba-elf-ba2-r36379/bin/../lib/gcc/ba-elf/4.7.4/mcpu_jn51xx_sizeopt\libgcc.a(fixsfsi.o)
 .debug_loc     0x00000000000039f0      0x15c c:/nxp/bstudio_nxp/sdk/tools/ba-elf-ba2-r36379/bin/../lib/gcc/ba-elf/4.7.4/mcpu_jn51xx_sizeopt\libgcc.a(floatunsisf.o)
 .debug_loc     0x0000000000003b4c     0x10f3 c:/nxp/bstudio_nxp/sdk/tools/ba-elf-ba2-r36379/bin/../lib/gcc/ba-elf/4.7.4/mcpu_jn51xx_sizeopt\libgcc.a(adddf3.o)
 .debug_loc     0x0000000000004c3f     0x117e c:/nxp/bstudio_nxp/sdk/tools/ba-elf-ba2-r36379/bin/../lib/gcc/ba-elf/4.7.4/mcpu_jn51xx_sizeopt\libgcc.a(divdf3.o)
 .debug_loc     0x0000000000005dbd      0x154 c:/nxp/bstudio_nxp/sdk/tools/ba-elf-ba2-r36379/bin/../lib/gcc/ba-elf/4.7.4/mcpu_jn51xx_sizeopt\libgcc.a(gedf2.o)
 .debug_loc     0x0000000000005f11      0xa0e c:/nxp/bstudio_nxp/sdk/tools/ba-elf-ba2-r36379/bin/../lib/gcc/ba-elf/4.7.4/mcpu_jn51xx_sizeopt\libgcc.a(muldf3.o)
 .debug_loc     0x000000000000691f     0x114e c:/nxp/bstudio_nxp/sdk/tools/ba-elf-ba2-r36379/bin/../lib/gcc/ba-elf/4.7.4/mcpu_jn51xx_sizeopt\libgcc.a(subdf3.o)
 .debug_loc     0x0000000000007a6d       0xa8 c:/nxp/bstudio_nxp/sdk/tools/ba-elf-ba2-r36379/bin/../lib/gcc/ba-elf/4.7.4/mcpu_jn51xx_sizeopt\libgcc.a(fixdfsi.o)
 .debug_loc     0x0000000000007b15      0x1ed c:/nxp/bstudio_nxp/sdk/tools/ba-elf-ba2-r36379/bin/../lib/gcc/ba-elf/4.7.4/mcpu_jn51xx_sizeopt\libgcc.a(extendsfdf2.o)
 .debug_loc     0x0000000000007d02      0x299 c:/nxp/bstudio_nxp/sdk/tools/ba-elf-ba2-r36379/bin/../lib/gcc/ba-elf/4.7.4/mcpu_jn51xx_sizeopt\libgcc.a(truncdfsf2.o)
 .debug_loc     0x0000000000007f9b      0x22d c:/nxp/bstudio_nxp/sdk/tools/ba-elf-ba2-r36379/bin/../lib/gcc/ba-elf/4.7.4/../../../../ba-elf/lib/mcpu_jn51xx_sizeopt\libm.a(lib_a-s_floor.o)

.debug_aranges  0x0000000000000000      0x3e0
 .debug_aranges
                0x0000000000000000       0x20 c:/nxp/bstudio_nxp/sdk/tools/ba-elf-ba2-r36379/bin/../lib/gcc/ba-elf/4.7.4/../../../../ba-elf/lib/mcpu_jn51xx_sizeopt\libc.a(lib_a-memcmp.o)
 .debug_aranges
                0x0000000000000020       0x20 c:/nxp/bstudio_nxp/sdk/tools/ba-elf-ba2-r36379/bin/../lib/gcc/ba-elf/4.7.4/../../../../ba-elf/lib/mcpu_jn51xx_sizeopt\libc.a(lib_a-memcpy.o)
 .debug_aranges
                0x0000000000000040       0x20 c:/nxp/bstudio_nxp/sdk/tools/ba-elf-ba2-r36379/bin/../lib/gcc/ba-elf/4.7.4/../../../../ba-elf/lib/mcpu_jn51xx_sizeopt\libc.a(lib_a-memset.o)
 .debug_aranges
                0x0000000000000060       0x20 c:/nxp/bstudio_nxp/sdk/tools/ba-elf-ba2-r36379/bin/../lib/gcc/ba-elf/4.7.4/../../../../ba-elf/lib/mcpu_jn51xx_sizeopt\libc.a(lib_a-strlen.o)
 .debug_aranges
                0x0000000000000080       0x20 c:/nxp/bstudio_nxp/sdk/tools/ba-elf-ba2-r36379/bin/../lib/gcc/ba-elf/4.7.4/../../../../ba-elf/lib/mcpu_jn51xx_sizeopt\libc.a(lib_a-strncpy.o)
 .debug_aranges
                0x00000000000000a0       0x20 c:/nxp/bstudio_nxp/sdk/tools/ba-elf-ba2-r36379/bin/../lib/gcc/ba-elf/4.7.4/mcpu_jn51xx_sizeopt\libgcc.a(__udivsi3.o)
 .debug_aranges
                0x00000000000000c0       0x20 c:/nxp/bstudio_nxp/sdk/tools/ba-elf-ba2-r36379/bin/../lib/gcc/ba-elf/4.7.4/mcpu_jn51xx_sizeopt\libgcc.a(__divsi3.o)
 .debug_aranges
                0x00000000000000e0       0x20 c:/nxp/bstudio_nxp/sdk/tools/ba-elf-ba2-r36379/bin/../lib/gcc/ba-elf/4.7.4/mcpu_jn51xx_sizeopt\libgcc.a(__umodsi3.o)
 .debug_aranges
                0x0000000000000100       0x20 c:/nxp/bstudio_nxp/sdk/tools/ba-elf-ba2-r36379/bin/../lib/gcc/ba-elf/4.7.4/mcpu_jn51xx_sizeopt\libgcc.a(__modsi3.o)
 .debug_aranges
                0x0000000000000120       0x20 c:/nxp/bstudio_nxp/sdk/tools/ba-elf-ba2-r36379/bin/../lib/gcc/ba-elf/4.7.4/mcpu_jn51xx_sizeopt\libgcc.a(_fixunsdfsi.o)
 .debug_aranges
                0x0000000000000140       0x20 c:/nxp/bstudio_nxp/sdk/tools/ba-elf-ba2-r36379/bin/../lib/gcc/ba-elf/4.7.4/mcpu_jn51xx_sizeopt\libgcc.a(_divdi3.o)
 .debug_aranges
                0x0000000000000160       0x20 c:/nxp/bstudio_nxp/sdk/tools/ba-elf-ba2-r36379/bin/../lib/gcc/ba-elf/4.7.4/mcpu_jn51xx_sizeopt\libgcc.a(_udivdi3.o)
 .debug_aranges
                0x0000000000000180       0x20 c:/nxp/bstudio_nxp/sdk/tools/ba-elf-ba2-r36379/bin/../lib/gcc/ba-elf/4.7.4/mcpu_jn51xx_sizeopt\libgcc.a(addsf3.o)
 .debug_aranges
                0x00000000000001a0       0x20 c:/nxp/bstudio_nxp/sdk/tools/ba-elf-ba2-r36379/bin/../lib/gcc/ba-elf/4.7.4/mcpu_jn51xx_sizeopt\libgcc.a(divsf3.o)
 .debug_aranges
                0x00000000000001c0       0x20 c:/nxp/bstudio_nxp/sdk/tools/ba-elf-ba2-r36379/bin/../lib/gcc/ba-elf/4.7.4/mcpu_jn51xx_sizeopt\libgcc.a(eqsf2.o)
 .debug_aranges
                0x00000000000001e0       0x20 c:/nxp/bstudio_nxp/sdk/tools/ba-elf-ba2-r36379/bin/../lib/gcc/ba-elf/4.7.4/mcpu_jn51xx_sizeopt\libgcc.a(gesf2.o)
 .debug_aranges
                0x0000000000000200       0x20 c:/nxp/bstudio_nxp/sdk/tools/ba-elf-ba2-r36379/bin/../lib/gcc/ba-elf/4.7.4/mcpu_jn51xx_sizeopt\libgcc.a(lesf2.o)
 .debug_aranges
                0x0000000000000220       0x20 c:/nxp/bstudio_nxp/sdk/tools/ba-elf-ba2-r36379/bin/../lib/gcc/ba-elf/4.7.4/mcpu_jn51xx_sizeopt\libgcc.a(mulsf3.o)
 .debug_aranges
                0x0000000000000240       0x20 c:/nxp/bstudio_nxp/sdk/tools/ba-elf-ba2-r36379/bin/../lib/gcc/ba-elf/4.7.4/mcpu_jn51xx_sizeopt\libgcc.a(subsf3.o)
 .debug_aranges
                0x0000000000000260       0x20 c:/nxp/bstudio_nxp/sdk/tools/ba-elf-ba2-r36379/bin/../lib/gcc/ba-elf/4.7.4/mcpu_jn51xx_sizeopt\libgcc.a(fixsfsi.o)
 .debug_aranges
                0x0000000000000280       0x20 c:/nxp/bstudio_nxp/sdk/tools/ba-elf-ba2-r36379/bin/../lib/gcc/ba-elf/4.7.4/mcpu_jn51xx_sizeopt\libgcc.a(floatunsisf.o)
 .debug_aranges
                0x00000000000002a0       0x20 c:/nxp/bstudio_nxp/sdk/tools/ba-elf-ba2-r36379/bin/../lib/gcc/ba-elf/4.7.4/mcpu_jn51xx_sizeopt\libgcc.a(adddf3.o)
 .debug_aranges
                0x00000000000002c0       0x20 c:/nxp/bstudio_nxp/sdk/tools/ba-elf-ba2-r36379/bin/../lib/gcc/ba-elf/4.7.4/mcpu_jn51xx_sizeopt\libgcc.a(divdf3.o)
 .debug_aranges
                0x00000000000002e0       0x20 c:/nxp/bstudio_nxp/sdk/tools/ba-elf-ba2-r36379/bin/../lib/gcc/ba-elf/4.7.4/mcpu_jn51xx_sizeopt\libgcc.a(gedf2.o)
 .debug_aranges
                0x0000000000000300       0x20 c:/nxp/bstudio_nxp/sdk/tools/ba-elf-ba2-r36379/bin/../lib/gcc/ba-elf/4.7.4/mcpu_jn51xx_sizeopt\libgcc.a(muldf3.o)
 .debug_aranges
                0x0000000000000320       0x20 c:/nxp/bstudio_nxp/sdk/tools/ba-elf-ba2-r36379/bin/../lib/gcc/ba-elf/4.7.4/mcpu_jn51xx_sizeopt\libgcc.a(subdf3.o)
 .debug_aranges
                0x0000000000000340       0x20 c:/nxp/bstudio_nxp/sdk/tools/ba-elf-ba2-r36379/bin/../lib/gcc/ba-elf/4.7.4/mcpu_jn51xx_sizeopt\libgcc.a(fixdfsi.o)
 .debug_aranges
                0x0000000000000360       0x20 c:/nxp/bstudio_nxp/sdk/tools/ba-elf-ba2-r36379/bin/../lib/gcc/ba-elf/4.7.4/mcpu_jn51xx_sizeopt\libgcc.a(extendsfdf2.o)
 .debug_aranges
                0x0000000000000380       0x20 c:/nxp/bstudio_nxp/sdk/tools/ba-elf-ba2-r36379/bin/../lib/gcc/ba-elf/4.7.4/mcpu_jn51xx_sizeopt\libgcc.a(truncdfsf2.o)
 .debug_aranges
                0x00000000000003a0       0x20 c:/NXP/bstudio_nxp/sdk/JN-SW-4168/Components/Library\libBoot_JN516x.a(ExceptionHandler.o)
 .debug_aranges
                0x00000000000003c0       0x20 c:/nxp/bstudio_nxp/sdk/tools/ba-elf-ba2-r36379/bin/../lib/gcc/ba-elf/4.7.4/../../../../ba-elf/lib/mcpu_jn51xx_sizeopt\libm.a(lib_a-s_floor.o)

.debug_line     0x0000000000000000     0x4098
 .debug_line    0x0000000000000000      0x154 c:/nxp/bstudio_nxp/sdk/tools/ba-elf-ba2-r36379/bin/../lib/gcc/ba-elf/4.7.4/../../../../ba-elf/lib/mcpu_jn51xx_sizeopt\libc.a(lib_a-memcmp.o)
 .debug_line    0x0000000000000154      0x148 c:/nxp/bstudio_nxp/sdk/tools/ba-elf-ba2-r36379/bin/../lib/gcc/ba-elf/4.7.4/../../../../ba-elf/lib/mcpu_jn51xx_sizeopt\libc.a(lib_a-memcpy.o)
 .debug_line    0x000000000000029c      0x13e c:/nxp/bstudio_nxp/sdk/tools/ba-elf-ba2-r36379/bin/../lib/gcc/ba-elf/4.7.4/../../../../ba-elf/lib/mcpu_jn51xx_sizeopt\libc.a(lib_a-memset.o)
 .debug_line    0x00000000000003da      0x12e c:/nxp/bstudio_nxp/sdk/tools/ba-elf-ba2-r36379/bin/../lib/gcc/ba-elf/4.7.4/../../../../ba-elf/lib/mcpu_jn51xx_sizeopt\libc.a(lib_a-strlen.o)
 .debug_line    0x0000000000000508      0x160 c:/nxp/bstudio_nxp/sdk/tools/ba-elf-ba2-r36379/bin/../lib/gcc/ba-elf/4.7.4/../../../../ba-elf/lib/mcpu_jn51xx_sizeopt\libc.a(lib_a-strncpy.o)
 .debug_line    0x0000000000000668      0x47b c:/nxp/bstudio_nxp/sdk/tools/ba-elf-ba2-r36379/bin/../lib/gcc/ba-elf/4.7.4/mcpu_jn51xx_sizeopt\libgcc.a(__udivsi3.o)
 .debug_line    0x0000000000000ae3       0xbb c:/nxp/bstudio_nxp/sdk/tools/ba-elf-ba2-r36379/bin/../lib/gcc/ba-elf/4.7.4/mcpu_jn51xx_sizeopt\libgcc.a(__divsi3.o)
 .debug_line    0x0000000000000b9e      0x3c7 c:/nxp/bstudio_nxp/sdk/tools/ba-elf-ba2-r36379/bin/../lib/gcc/ba-elf/4.7.4/mcpu_jn51xx_sizeopt\libgcc.a(__umodsi3.o)
 .debug_line    0x0000000000000f65       0xa3 c:/nxp/bstudio_nxp/sdk/tools/ba-elf-ba2-r36379/bin/../lib/gcc/ba-elf/4.7.4/mcpu_jn51xx_sizeopt\libgcc.a(__modsi3.o)
 .debug_line    0x0000000000001008       0x9f c:/nxp/bstudio_nxp/sdk/tools/ba-elf-ba2-r36379/bin/../lib/gcc/ba-elf/4.7.4/mcpu_jn51xx_sizeopt\libgcc.a(_fixunsdfsi.o)
 .debug_line    0x00000000000010a7      0x20e c:/nxp/bstudio_nxp/sdk/tools/ba-elf-ba2-r36379/bin/../lib/gcc/ba-elf/4.7.4/mcpu_jn51xx_sizeopt\libgcc.a(_divdi3.o)
 .debug_line    0x00000000000012b5      0x1b7 c:/nxp/bstudio_nxp/sdk/tools/ba-elf-ba2-r36379/bin/../lib/gcc/ba-elf/4.7.4/mcpu_jn51xx_sizeopt\libgcc.a(_udivdi3.o)
 .debug_line    0x000000000000146c      0x448 c:/nxp/bstudio_nxp/sdk/tools/ba-elf-ba2-r36379/bin/../lib/gcc/ba-elf/4.7.4/mcpu_jn51xx_sizeopt\libgcc.a(addsf3.o)
 .debug_line    0x00000000000018b4      0x1b4 c:/nxp/bstudio_nxp/sdk/tools/ba-elf-ba2-r36379/bin/../lib/gcc/ba-elf/4.7.4/mcpu_jn51xx_sizeopt\libgcc.a(divsf3.o)
 .debug_line    0x0000000000001a68       0xe5 c:/nxp/bstudio_nxp/sdk/tools/ba-elf-ba2-r36379/bin/../lib/gcc/ba-elf/4.7.4/mcpu_jn51xx_sizeopt\libgcc.a(eqsf2.o)
 .debug_line    0x0000000000001b4d      0x115 c:/nxp/bstudio_nxp/sdk/tools/ba-elf-ba2-r36379/bin/../lib/gcc/ba-elf/4.7.4/mcpu_jn51xx_sizeopt\libgcc.a(gesf2.o)
 .debug_line    0x0000000000001c62      0x115 c:/nxp/bstudio_nxp/sdk/tools/ba-elf-ba2-r36379/bin/../lib/gcc/ba-elf/4.7.4/mcpu_jn51xx_sizeopt\libgcc.a(lesf2.o)
 .debug_line    0x0000000000001d77      0x199 c:/nxp/bstudio_nxp/sdk/tools/ba-elf-ba2-r36379/bin/../lib/gcc/ba-elf/4.7.4/mcpu_jn51xx_sizeopt\libgcc.a(mulsf3.o)
 .debug_line    0x0000000000001f10      0x475 c:/nxp/bstudio_nxp/sdk/tools/ba-elf-ba2-r36379/bin/../lib/gcc/ba-elf/4.7.4/mcpu_jn51xx_sizeopt\libgcc.a(subsf3.o)
 .debug_line    0x0000000000002385       0xc8 c:/nxp/bstudio_nxp/sdk/tools/ba-elf-ba2-r36379/bin/../lib/gcc/ba-elf/4.7.4/mcpu_jn51xx_sizeopt\libgcc.a(fixsfsi.o)
 .debug_line    0x000000000000244d      0x10e c:/nxp/bstudio_nxp/sdk/tools/ba-elf-ba2-r36379/bin/../lib/gcc/ba-elf/4.7.4/mcpu_jn51xx_sizeopt\libgcc.a(floatunsisf.o)
 .debug_line    0x000000000000255b      0x63d c:/nxp/bstudio_nxp/sdk/tools/ba-elf-ba2-r36379/bin/../lib/gcc/ba-elf/4.7.4/mcpu_jn51xx_sizeopt\libgcc.a(adddf3.o)
 .debug_line    0x0000000000002b98      0x3b5 c:/nxp/bstudio_nxp/sdk/tools/ba-elf-ba2-r36379/bin/../lib/gcc/ba-elf/4.7.4/mcpu_jn51xx_sizeopt\libgcc.a(divdf3.o)
 .debug_line    0x0000000000002f4d      0x15f c:/nxp/bstudio_nxp/sdk/tools/ba-elf-ba2-r36379/bin/../lib/gcc/ba-elf/4.7.4/mcpu_jn51xx_sizeopt\libgcc.a(gedf2.o)
 .debug_line    0x00000000000030ac      0x269 c:/nxp/bstudio_nxp/sdk/tools/ba-elf-ba2-r36379/bin/../lib/gcc/ba-elf/4.7.4/mcpu_jn51xx_sizeopt\libgcc.a(muldf3.o)
 .debug_line    0x0000000000003315      0x656 c:/nxp/bstudio_nxp/sdk/tools/ba-elf-ba2-r36379/bin/../lib/gcc/ba-elf/4.7.4/mcpu_jn51xx_sizeopt\libgcc.a(subdf3.o)
 .debug_line    0x000000000000396b       0xc8 c:/nxp/bstudio_nxp/sdk/tools/ba-elf-ba2-r36379/bin/../lib/gcc/ba-elf/4.7.4/mcpu_jn51xx_sizeopt\libgcc.a(fixdfsi.o)
 .debug_line    0x0000000000003a33      0x10b c:/nxp/bstudio_nxp/sdk/tools/ba-elf-ba2-r36379/bin/../lib/gcc/ba-elf/4.7.4/mcpu_jn51xx_sizeopt\libgcc.a(extendsfdf2.o)
 .debug_line    0x0000000000003b3e      0x18a c:/nxp/bstudio_nxp/sdk/tools/ba-elf-ba2-r36379/bin/../lib/gcc/ba-elf/4.7.4/mcpu_jn51xx_sizeopt\libgcc.a(truncdfsf2.o)
 .debug_line    0x0000000000003cc8      0x19d c:/NXP/bstudio_nxp/sdk/JN-SW-4168/Components/Library\libBoot_JN516x.a(ExceptionHandler.o)
 .debug_line    0x0000000000003e65      0x233 c:/nxp/bstudio_nxp/sdk/tools/ba-elf-ba2-r36379/bin/../lib/gcc/ba-elf/4.7.4/../../../../ba-elf/lib/mcpu_jn51xx_sizeopt\libm.a(lib_a-s_floor.o)

.debug_str      0x0000000000000000      0xa56
 .debug_str     0x0000000000000000      0x119 c:/nxp/bstudio_nxp/sdk/tools/ba-elf-ba2-r36379/bin/../lib/gcc/ba-elf/4.7.4/../../../../ba-elf/lib/mcpu_jn51xx_sizeopt\libc.a(lib_a-memcmp.o)
                                        0x152 (size before relaxing)
 .debug_str     0x0000000000000119       0x5d c:/nxp/bstudio_nxp/sdk/tools/ba-elf-ba2-r36379/bin/../lib/gcc/ba-elf/4.7.4/../../../../ba-elf/lib/mcpu_jn51xx_sizeopt\libc.a(lib_a-memcpy.o)
                                        0x166 (size before relaxing)
 .debug_str     0x0000000000000176       0x49 c:/nxp/bstudio_nxp/sdk/tools/ba-elf-ba2-r36379/bin/../lib/gcc/ba-elf/4.7.4/../../../../ba-elf/lib/mcpu_jn51xx_sizeopt\libc.a(lib_a-memset.o)
                                        0x152 (size before relaxing)
 .debug_str     0x00000000000001bf       0x4f c:/nxp/bstudio_nxp/sdk/tools/ba-elf-ba2-r36379/bin/../lib/gcc/ba-elf/4.7.4/../../../../ba-elf/lib/mcpu_jn51xx_sizeopt\libc.a(lib_a-strlen.o)
                                        0x158 (size before relaxing)
 .debug_str     0x000000000000020e       0x5d c:/nxp/bstudio_nxp/sdk/tools/ba-elf-ba2-r36379/bin/../lib/gcc/ba-elf/4.7.4/../../../../ba-elf/lib/mcpu_jn51xx_sizeopt\libc.a(lib_a-strncpy.o)
                                        0x170 (size before relaxing)
 .debug_str     0x000000000000026b       0xc2 c:/nxp/bstudio_nxp/sdk/tools/ba-elf-ba2-r36379/bin/../lib/gcc/ba-elf/4.7.4/mcpu_jn51xx_sizeopt\libgcc.a(_fixunsdfsi.o)
                                        0x166 (size before relaxing)
 .debug_str     0x000000000000032d       0x7a c:/nxp/bstudio_nxp/sdk/tools/ba-elf-ba2-r36379/bin/../lib/gcc/ba-elf/4.7.4/mcpu_jn51xx_sizeopt\libgcc.a(_divdi3.o)
                                        0x1d3 (size before relaxing)
 .debug_str     0x00000000000003a7        0xa c:/nxp/bstudio_nxp/sdk/tools/ba-elf-ba2-r36379/bin/../lib/gcc/ba-elf/4.7.4/mcpu_jn51xx_sizeopt\libgcc.a(_udivdi3.o)
                                        0x1d4 (size before relaxing)
 .debug_str     0x00000000000003b1       0xa8 c:/nxp/bstudio_nxp/sdk/tools/ba-elf-ba2-r36379/bin/../lib/gcc/ba-elf/4.7.4/mcpu_jn51xx_sizeopt\libgcc.a(addsf3.o)
                                        0x191 (size before relaxing)
 .debug_str     0x0000000000000459       0x48 c:/nxp/bstudio_nxp/sdk/tools/ba-elf-ba2-r36379/bin/../lib/gcc/ba-elf/4.7.4/mcpu_jn51xx_sizeopt\libgcc.a(divsf3.o)
                                        0x15e (size before relaxing)
 .debug_str     0x00000000000004a1       0x3f c:/nxp/bstudio_nxp/sdk/tools/ba-elf-ba2-r36379/bin/../lib/gcc/ba-elf/4.7.4/mcpu_jn51xx_sizeopt\libgcc.a(eqsf2.o)
                                        0x14f (size before relaxing)
 .debug_str     0x00000000000004e0       0x57 c:/nxp/bstudio_nxp/sdk/tools/ba-elf-ba2-r36379/bin/../lib/gcc/ba-elf/4.7.4/mcpu_jn51xx_sizeopt\libgcc.a(gesf2.o)
                                        0x167 (size before relaxing)
 .debug_str     0x0000000000000537       0x3f c:/nxp/bstudio_nxp/sdk/tools/ba-elf-ba2-r36379/bin/../lib/gcc/ba-elf/4.7.4/mcpu_jn51xx_sizeopt\libgcc.a(lesf2.o)
                                        0x167 (size before relaxing)
 .debug_str     0x0000000000000576       0x55 c:/nxp/bstudio_nxp/sdk/tools/ba-elf-ba2-r36379/bin/../lib/gcc/ba-elf/4.7.4/mcpu_jn51xx_sizeopt\libgcc.a(mulsf3.o)
                                        0x194 (size before relaxing)
 .debug_str     0x00000000000005cb       0x41 c:/nxp/bstudio_nxp/sdk/tools/ba-elf-ba2-r36379/bin/../lib/gcc/ba-elf/4.7.4/mcpu_jn51xx_sizeopt\libgcc.a(subsf3.o)
                                        0x191 (size before relaxing)
 .debug_str     0x000000000000060c       0x4b c:/nxp/bstudio_nxp/sdk/tools/ba-elf-ba2-r36379/bin/../lib/gcc/ba-elf/4.7.4/mcpu_jn51xx_sizeopt\libgcc.a(fixsfsi.o)
                                        0x16a (size before relaxing)
 .debug_str     0x0000000000000657       0x58 c:/nxp/bstudio_nxp/sdk/tools/ba-elf-ba2-r36379/bin/../lib/gcc/ba-elf/4.7.4/mcpu_jn51xx_sizeopt\libgcc.a(floatunsisf.o)
                                        0x170 (size before relaxing)
 .debug_str     0x00000000000006af       0x77 c:/nxp/bstudio_nxp/sdk/tools/ba-elf-ba2-r36379/bin/../lib/gcc/ba-elf/4.7.4/mcpu_jn51xx_sizeopt\libgcc.a(adddf3.o)
                                        0x1b7 (size before relaxing)
 .debug_str     0x0000000000000726       0x6b c:/nxp/bstudio_nxp/sdk/tools/ba-elf-ba2-r36379/bin/../lib/gcc/ba-elf/4.7.4/mcpu_jn51xx_sizeopt\libgcc.a(divdf3.o)
                                        0x1f6 (size before relaxing)
 .debug_str     0x0000000000000791       0x3f c:/nxp/bstudio_nxp/sdk/tools/ba-elf-ba2-r36379/bin/../lib/gcc/ba-elf/4.7.4/mcpu_jn51xx_sizeopt\libgcc.a(gedf2.o)
                                        0x183 (size before relaxing)
 .debug_str     0x00000000000007d0       0x72 c:/nxp/bstudio_nxp/sdk/tools/ba-elf-ba2-r36379/bin/../lib/gcc/ba-elf/4.7.4/mcpu_jn51xx_sizeopt\libgcc.a(muldf3.o)
                                        0x1e8 (size before relaxing)
 .debug_str     0x0000000000000842       0x41 c:/nxp/bstudio_nxp/sdk/tools/ba-elf-ba2-r36379/bin/../lib/gcc/ba-elf/4.7.4/mcpu_jn51xx_sizeopt\libgcc.a(subdf3.o)
                                        0x1b7 (size before relaxing)
 .debug_str     0x0000000000000883       0x43 c:/nxp/bstudio_nxp/sdk/tools/ba-elf-ba2-r36379/bin/../lib/gcc/ba-elf/4.7.4/mcpu_jn51xx_sizeopt\libgcc.a(fixdfsi.o)
                                        0x17c (size before relaxing)
 .debug_str     0x00000000000008c6       0x4b c:/nxp/bstudio_nxp/sdk/tools/ba-elf-ba2-r36379/bin/../lib/gcc/ba-elf/4.7.4/mcpu_jn51xx_sizeopt\libgcc.a(extendsfdf2.o)
                                        0x18b (size before relaxing)
 .debug_str     0x0000000000000911       0x49 c:/nxp/bstudio_nxp/sdk/tools/ba-elf-ba2-r36379/bin/../lib/gcc/ba-elf/4.7.4/mcpu_jn51xx_sizeopt\libgcc.a(truncdfsf2.o)
                                        0x189 (size before relaxing)
 .debug_str     0x000000000000095a       0xfc c:/nxp/bstudio_nxp/sdk/tools/ba-elf-ba2-r36379/bin/../lib/gcc/ba-elf/4.7.4/../../../../ba-elf/lib/mcpu_jn51xx_sizeopt\libm.a(lib_a-s_floor.o)
                                        0x1a7 (size before relaxing)

.debug_frame    0x0000000000000000      0x3e4
 .debug_frame   0x0000000000000000       0x20 c:/nxp/bstudio_nxp/sdk/tools/ba-elf-ba2-r36379/bin/../lib/gcc/ba-elf/4.7.4/../../../../ba-elf/lib/mcpu_jn51xx_sizeopt\libc.a(lib_a-memcmp.o)
 .debug_frame   0x0000000000000020       0x20 c:/nxp/bstudio_nxp/sdk/tools/ba-elf-ba2-r36379/bin/../lib/gcc/ba-elf/4.7.4/../../../../ba-elf/lib/mcpu_jn51xx_sizeopt\libc.a(lib_a-memcpy.o)
 .debug_frame   0x0000000000000040       0x20 c:/nxp/bstudio_nxp/sdk/tools/ba-elf-ba2-r36379/bin/../lib/gcc/ba-elf/4.7.4/../../../../ba-elf/lib/mcpu_jn51xx_sizeopt\libc.a(lib_a-memset.o)
 .debug_frame   0x0000000000000060       0x20 c:/nxp/bstudio_nxp/sdk/tools/ba-elf-ba2-r36379/bin/../lib/gcc/ba-elf/4.7.4/../../../../ba-elf/lib/mcpu_jn51xx_sizeopt\libc.a(lib_a-strlen.o)
 .debug_frame   0x0000000000000080       0x20 c:/nxp/bstudio_nxp/sdk/tools/ba-elf-ba2-r36379/bin/../lib/gcc/ba-elf/4.7.4/../../../../ba-elf/lib/mcpu_jn51xx_sizeopt\libc.a(lib_a-strncpy.o)
 .debug_frame   0x00000000000000a0       0x2c c:/nxp/bstudio_nxp/sdk/tools/ba-elf-ba2-r36379/bin/../lib/gcc/ba-elf/4.7.4/mcpu_jn51xx_sizeopt\libgcc.a(_fixunsdfsi.o)
 .debug_frame   0x00000000000000cc       0x2c c:/nxp/bstudio_nxp/sdk/tools/ba-elf-ba2-r36379/bin/../lib/gcc/ba-elf/4.7.4/mcpu_jn51xx_sizeopt\libgcc.a(addsf3.o)
 .debug_frame   0x00000000000000f8       0x30 c:/nxp/bstudio_nxp/sdk/tools/ba-elf-ba2-r36379/bin/../lib/gcc/ba-elf/4.7.4/mcpu_jn51xx_sizeopt\libgcc.a(divsf3.o)
 .debug_frame   0x0000000000000128       0x2c c:/nxp/bstudio_nxp/sdk/tools/ba-elf-ba2-r36379/bin/../lib/gcc/ba-elf/4.7.4/mcpu_jn51xx_sizeopt\libgcc.a(eqsf2.o)
 .debug_frame   0x0000000000000154       0x2c c:/nxp/bstudio_nxp/sdk/tools/ba-elf-ba2-r36379/bin/../lib/gcc/ba-elf/4.7.4/mcpu_jn51xx_sizeopt\libgcc.a(gesf2.o)
 .debug_frame   0x0000000000000180       0x2c c:/nxp/bstudio_nxp/sdk/tools/ba-elf-ba2-r36379/bin/../lib/gcc/ba-elf/4.7.4/mcpu_jn51xx_sizeopt\libgcc.a(lesf2.o)
 .debug_frame   0x00000000000001ac       0x30 c:/nxp/bstudio_nxp/sdk/tools/ba-elf-ba2-r36379/bin/../lib/gcc/ba-elf/4.7.4/mcpu_jn51xx_sizeopt\libgcc.a(mulsf3.o)
 .debug_frame   0x00000000000001dc       0x2c c:/nxp/bstudio_nxp/sdk/tools/ba-elf-ba2-r36379/bin/../lib/gcc/ba-elf/4.7.4/mcpu_jn51xx_sizeopt\libgcc.a(subsf3.o)
 .debug_frame   0x0000000000000208       0x20 c:/nxp/bstudio_nxp/sdk/tools/ba-elf-ba2-r36379/bin/../lib/gcc/ba-elf/4.7.4/mcpu_jn51xx_sizeopt\libgcc.a(fixsfsi.o)
 .debug_frame   0x0000000000000228       0x20 c:/nxp/bstudio_nxp/sdk/tools/ba-elf-ba2-r36379/bin/../lib/gcc/ba-elf/4.7.4/mcpu_jn51xx_sizeopt\libgcc.a(floatunsisf.o)
 .debug_frame   0x0000000000000248       0x30 c:/nxp/bstudio_nxp/sdk/tools/ba-elf-ba2-r36379/bin/../lib/gcc/ba-elf/4.7.4/mcpu_jn51xx_sizeopt\libgcc.a(adddf3.o)
 .debug_frame   0x0000000000000278       0x34 c:/nxp/bstudio_nxp/sdk/tools/ba-elf-ba2-r36379/bin/../lib/gcc/ba-elf/4.7.4/mcpu_jn51xx_sizeopt\libgcc.a(divdf3.o)
 .debug_frame   0x00000000000002ac       0x34 c:/nxp/bstudio_nxp/sdk/tools/ba-elf-ba2-r36379/bin/../lib/gcc/ba-elf/4.7.4/mcpu_jn51xx_sizeopt\libgcc.a(gedf2.o)
 .debug_frame   0x00000000000002e0       0x34 c:/nxp/bstudio_nxp/sdk/tools/ba-elf-ba2-r36379/bin/../lib/gcc/ba-elf/4.7.4/mcpu_jn51xx_sizeopt\libgcc.a(muldf3.o)
 .debug_frame   0x0000000000000314       0x30 c:/nxp/bstudio_nxp/sdk/tools/ba-elf-ba2-r36379/bin/../lib/gcc/ba-elf/4.7.4/mcpu_jn51xx_sizeopt\libgcc.a(subdf3.o)
 .debug_frame   0x0000000000000344       0x20 c:/nxp/bstudio_nxp/sdk/tools/ba-elf-ba2-r36379/bin/../lib/gcc/ba-elf/4.7.4/mcpu_jn51xx_sizeopt\libgcc.a(fixdfsi.o)
 .debug_frame   0x0000000000000364       0x20 c:/nxp/bstudio_nxp/sdk/tools/ba-elf-ba2-r36379/bin/../lib/gcc/ba-elf/4.7.4/mcpu_jn51xx_sizeopt\libgcc.a(extendsfdf2.o)
 .debug_frame   0x0000000000000384       0x2c c:/nxp/bstudio_nxp/sdk/tools/ba-elf-ba2-r36379/bin/../lib/gcc/ba-elf/4.7.4/mcpu_jn51xx_sizeopt\libgcc.a(truncdfsf2.o)
 .debug_frame   0x00000000000003b0       0x34 c:/nxp/bstudio_nxp/sdk/tools/ba-elf-ba2-r36379/bin/../lib/gcc/ba-elf/4.7.4/../../../../ba-elf/lib/mcpu_jn51xx_sizeopt\libm.a(lib_a-s_floor.o)

.debug_ranges   0x0000000000000000      0x720
 .debug_ranges  0x0000000000000000       0x80 c:/nxp/bstudio_nxp/sdk/tools/ba-elf-ba2-r36379/bin/../lib/gcc/ba-elf/4.7.4/mcpu_jn51xx_sizeopt\libgcc.a(_divdi3.o)
 .debug_ranges  0x0000000000000080       0xa0 c:/nxp/bstudio_nxp/sdk/tools/ba-elf-ba2-r36379/bin/../lib/gcc/ba-elf/4.7.4/mcpu_jn51xx_sizeopt\libgcc.a(_udivdi3.o)
 .debug_ranges  0x0000000000000120       0x78 c:/nxp/bstudio_nxp/sdk/tools/ba-elf-ba2-r36379/bin/../lib/gcc/ba-elf/4.7.4/mcpu_jn51xx_sizeopt\libgcc.a(addsf3.o)
 .debug_ranges  0x0000000000000198       0x18 c:/nxp/bstudio_nxp/sdk/tools/ba-elf-ba2-r36379/bin/../lib/gcc/ba-elf/4.7.4/mcpu_jn51xx_sizeopt\libgcc.a(divsf3.o)
 .debug_ranges  0x00000000000001b0       0x40 c:/nxp/bstudio_nxp/sdk/tools/ba-elf-ba2-r36379/bin/../lib/gcc/ba-elf/4.7.4/mcpu_jn51xx_sizeopt\libgcc.a(eqsf2.o)
 .debug_ranges  0x00000000000001f0       0x38 c:/nxp/bstudio_nxp/sdk/tools/ba-elf-ba2-r36379/bin/../lib/gcc/ba-elf/4.7.4/mcpu_jn51xx_sizeopt\libgcc.a(gesf2.o)
 .debug_ranges  0x0000000000000228       0x40 c:/nxp/bstudio_nxp/sdk/tools/ba-elf-ba2-r36379/bin/../lib/gcc/ba-elf/4.7.4/mcpu_jn51xx_sizeopt\libgcc.a(lesf2.o)
 .debug_ranges  0x0000000000000268       0x40 c:/nxp/bstudio_nxp/sdk/tools/ba-elf-ba2-r36379/bin/../lib/gcc/ba-elf/4.7.4/mcpu_jn51xx_sizeopt\libgcc.a(mulsf3.o)
 .debug_ranges  0x00000000000002a8       0x78 c:/nxp/bstudio_nxp/sdk/tools/ba-elf-ba2-r36379/bin/../lib/gcc/ba-elf/4.7.4/mcpu_jn51xx_sizeopt\libgcc.a(subsf3.o)
 .debug_ranges  0x0000000000000320       0x80 c:/nxp/bstudio_nxp/sdk/tools/ba-elf-ba2-r36379/bin/../lib/gcc/ba-elf/4.7.4/mcpu_jn51xx_sizeopt\libgcc.a(adddf3.o)
 .debug_ranges  0x00000000000003a0       0xb0 c:/nxp/bstudio_nxp/sdk/tools/ba-elf-ba2-r36379/bin/../lib/gcc/ba-elf/4.7.4/mcpu_jn51xx_sizeopt\libgcc.a(divdf3.o)
 .debug_ranges  0x0000000000000450       0x58 c:/nxp/bstudio_nxp/sdk/tools/ba-elf-ba2-r36379/bin/../lib/gcc/ba-elf/4.7.4/mcpu_jn51xx_sizeopt\libgcc.a(gedf2.o)
 .debug_ranges  0x00000000000004a8      0x1a8 c:/nxp/bstudio_nxp/sdk/tools/ba-elf-ba2-r36379/bin/../lib/gcc/ba-elf/4.7.4/mcpu_jn51xx_sizeopt\libgcc.a(muldf3.o)
 .debug_ranges  0x0000000000000650       0x78 c:/nxp/bstudio_nxp/sdk/tools/ba-elf-ba2-r36379/bin/../lib/gcc/ba-elf/4.7.4/mcpu_jn51xx_sizeopt\libgcc.a(subdf3.o)
 .debug_ranges  0x00000000000006c8       0x18 c:/nxp/bstudio_nxp/sdk/tools/ba-elf-ba2-r36379/bin/../lib/gcc/ba-elf/4.7.4/mcpu_jn51xx_sizeopt\libgcc.a(fixdfsi.o)
 .debug_ranges  0x00000000000006e0       0x18 c:/nxp/bstudio_nxp/sdk/tools/ba-elf-ba2-r36379/bin/../lib/gcc/ba-elf/4.7.4/mcpu_jn51xx_sizeopt\libgcc.a(extendsfdf2.o)
 .debug_ranges  0x00000000000006f8       0x28 c:/nxp/bstudio_nxp/sdk/tools/ba-elf-ba2-r36379/bin/../lib/gcc/ba-elf/4.7.4/mcpu_jn51xx_sizeopt\libgcc.a(truncdfsf2.o)
